(dp1
I0
S'.'
sI1
Vyellow
p2
sI2
Vfour
p3
sI3
Vwoods
p4
sI4
Vhanging
p5
sI5
Vmarching
p6
sI6
Vwooded
p7
sI7
Vwooden
p8
sI8
Vrailing
p9
sI9
Vtires
p10
sI10
Vrusty
p11
sI11
Vboogie
p12
sI12
Vsooners
p13
sI13
Vfingers
p14
sI14
Vcart
p15
sI15
Vkids
p16
sI16
Velaborate
p17
sI17
Vmilitary
p18
sI18
Vclimber
p19
sI19
Vgolden
p20
sI20
Vmusic
p21
sI21
Vfemales
p22
sI22
Vrelax
p23
sI23
Vglass
p24
sI24
Vhole
p25
sI25
Vhold
p26
sI26
Vwand
p27
sI27
Vcaution
p28
sI28
Vtravel
p29
sI29
Vmachine
p30
sI30
Vhow
p31
sI31
Vhot
p32
sI32
Vcolorfully
p33
sI33
Vwind
p34
sI34
Vwine
p35
sI35
Vplayhouse
p36
sI36
Vbackpack
p37
sI37
Vsilver
p38
sI38
Vdumps
p39
sI39
Vtelescope
p40
sI40
Vseries
p41
sI41
Vspider
p42
sI42
Vbowls
p43
sI43
Vrv
p44
sI44
Vpumpkins
p45
sI45
Vsheet
p46
sI46
Vknit
p47
sI47
Vatm
p48
sI48
Vatv
p49
sI49
Vmusicians
p50
sI50
Vspeeds
p51
sI51
Vplayfully
p52
sI52
Vspinning
p53
sI53
Vbasketball
p54
sI54
Vlegs
p55
sI55
Vlunges
p56
sI56
Vevil
p57
sI57
Vtree
p58
sI58
Vsecond
p59
sI59
Vshower
p60
sI60
Vrunner
p61
sI61
Vboston
p62
sI62
Vpaddles
p63
sI63
Vshrubs
p64
sI64
Vconcrete
p65
sI65
Vbleachers
p66
sI66
Vsoaked
p67
sI67
Vracers
p68
sI68
Vdoors
p69
sI69
Vcrossbones
p70
sI70
Vobject
p71
sI71
Vmouth
p72
sI72
Vsinger
p73
sI73
Vcamp
p74
sI74
Vsaying
p75
sI75
Vcooking
p76
sI76
Vpadded
p77
sI77
Vparticipate
p78
sI78
Vcapes
p79
sI79
Vtouches
p80
sI80
Vbusy
p81
sI81
Vbush
p82
sI82
Vplate
p83
sI83
Vcartwheels
p84
sI84
Vcushion
p85
sI85
Vtights
p86
sI86
Vboarder
p87
sI87
Vpatch
p88
sI88
Vpiggy
p89
sI89
Vfair
p90
sI90
Vpads
p91
sI91
Vlots
p92
sI92
Vrings
p93
sI93
Vscore
p94
sI94
Vpirate
p95
sI95
Vskimpy
p96
sI96
Vwheelbarrow
p97
sI97
Vroller
p98
sI98
Vcountry
p99
sI99
Vand
p100
sI100
Vcanyon
p101
sI101
Vblonde
p102
sI102
Vwatercraft
p103
sI103
Vmuch
p104
sI104
Vstadium
p105
sI105
Vlife
p106
sI106
Veastern
p107
sI107
Vworker
p108
sI108
Vstrewn
p109
sI109
Vchild
p110
sI110
Vskirts
p111
sI111
Vcanoeing
p112
sI112
Vplayed
p113
sI113
Vplayer
p114
sI114
Vviolin
p115
sI115
Vthings
p116
sI116
Vbabies
p117
sI117
Vcouple
p118
sI118
Veuropean
p119
sI119
Vtops
p120
sI120
Vphotographers
p121
sI121
Vsleeps
p122
sI122
Vlasso
p123
sI123
Vhay
p124
sI124
Vhas
p125
sI125
Vhat
p126
sI126
Vposed
p127
sI127
Vshadow
p128
sI128
Vpavement
p129
sI129
Vsteps
p130
sI130
Vright
p131
sI131
Vold
p132
sI132
Vcreek
p133
sI133
Vcrowd
p134
sI134
Vpeople
p135
sI135
Vcrown
p136
sI136
Vbillboard
p137
sI137
Vfor
p138
sI138
Vbottom
p139
sI139
Vshakes
p140
sI140
Vtrampoline
p141
sI141
Vbenches
p142
sI142
Vo
sI143
Vslightly
p143
sI144
Vson
p144
sI145
Vmagazines
p145
sI146
Vraises
p146
sI147
Vshoots
p147
sI148
Vfabric
p148
sI149
Vwaits
p149
sI150
Vhappy
p150
sI151
Vinside
p151
sI152
Vlays
p152
sI153
Vtournament
p153
sI154
Vpaperwork
p154
sI155
Vfloor
p155
sI156
Vglacier
p156
sI157
Vroll
p157
sI158
Vgreenery
p158
sI159
Vrolling
p159
sI160
Vtime
p160
sI161
Vpush
p161
sI162
Vbanners
p162
sI163
Vgown
p163
sI164
Vchain
p164
sI165
Vcrocodile
p165
sI166
Vskate
p166
sI167
Vskiing
p167
sI168
Vtrashcan
p168
sI169
Vchair
p169
sI170
Vmidst
p170
sI171
Vbicycles
p171
sI172
Vbicycler
p172
sI173
Vtricycle
p173
sI174
Vsubway
p174
sI175
Vteal
p175
sI176
Vteam
p176
sI177
Vmeadow
p177
sI178
Vtrails
p178
sI179
Vsign
p179
sI180
Vshirts
p180
sI181
Vparachuting
p181
sI182
Vplaypen
p182
sI183
Vheadset
p183
sI184
Vcurrent
p184
sI185
Vfalling
p185
sI186
Vcrashing
p186
sI187
Vclimbs
p187
sI188
Valone
p188
sI189
Valong
p189
sI190
Vpassengers
p190
sI191
Vdusty
p191
sI192
Vfake
p192
sI193
Vworking
p193
sI194
Vwicker
p194
sI195
Vclaus
p195
sI196
Veverywhere
p196
sI197
Vriders
p197
sI198
Vmascot
p198
sI199
Vfollowing
p199
sI200
Vparachute
p200
sI201
Vhides
p201
sI202
Vlistens
p202
sI203
Vwinter
p203
sI204
Velephant
p204
sI205
Vspot
p205
sI206
Vsurfing
p206
sI207
Vnatural
p207
sI208
Vwheelchair
p208
sI209
Vdarkened
p209
sI210
Vtruck
p210
sI211
Vpulled
p211
sI212
Vkayaks
p212
sI213
Vflips
p213
sI214
Vcourse
p214
sI215
Vbucking
p215
sI216
Vyawning
p216
sI217
Vaccordion
p217
sI218
Vapron
p218
sI219
Vdrilling
p219
sI220
Vrunners
p220
sI221
Vfisherman
p221
sI222
Vbowling
p222
sI223
Vsquare
p223
sI224
Vretrieve
p224
sI225
Vcontainer
p225
sI226
Vbumpy
p226
sI227
Vtraining
p227
sI228
Vsilhouetted
p228
sI229
Vone
p229
sI230
Vchubby
p230
sI231
Vpotted
p231
sI232
Vopen
p232
sI233
Vcity
p233
sI234
Vbite
p234
sI235
Vstuffed
p235
sI236
Vstructures
p236
sI237
Vfloppy
p237
sI238
Vrival
p238
sI239
Vcoats
p239
sI240
Vscuba
p240
sI241
Vturned
p241
sI242
Valley
p242
sI243
Vburied
p243
sI244
Vsat
p244
sI245
Vtake
p245
sI246
Vbutterfly
p246
sI247
Vhanding
p247
sI248
Vopposite
p248
sI249
Vknee
p249
sI250
Vlawn
p250
sI251
Vdrive
p251
sI252
Vwalking
p252
sI253
Vbright
p253
sI254
Vgoing
p254
sI255
Vhockey
p255
sI256
Vrobe
p256
sI257
Vwheelie
p257
sI258
Vskyline
p258
sI259
Vsnowsuit
p259
sI260
Vwhere
p260
sI261
Vdives
p261
sI262
Vdiver
p262
sI263
Vjumped
p263
sI264
Vnavigates
p264
sI265
Vjumper
p265
sI266
Vcheckered
p266
sI267
Vvertical
p267
sI268
Vscreen
p268
sI269
Vmans
p269
sI270
Vmany
p270
sI271
Vs
sI272
Vexpression
p271
sI273
Vboat
p272
sI274
Vteddy
p273
sI275
Vstretch
p274
sI276
Vreflective
p275
sI277
Vphotos
p276
sI278
Vparasail
p277
sI279
Vcanoes
p278
sI280
Vnewspaper
p279
sI281
Vcanoe
p280
sI282
Vpurse
p281
sI283
Vcafe
p282
sI284
Vcheers
p283
sI285
Vsnowbank
p284
sI286
Vadvertisement
p285
sI287
Vmohawk
p286
sI288
Vtrains
p287
sI289
Vsummer
p288
sI290
Vsprayed
p289
sI291
Vbeing
p290
sI292
Vrest
p291
sI293
Vmedals
p292
sI294
Vinstrument
p293
sI295
Vskies
p294
sI296
Vskier
p295
sI297
Varound
p296
sI298
Vsumo
p297
sI299
Vtraffic
p298
sI300
Vtarp
p299
sI301
Vclad
p300
sI302
Vseating
p301
sI303
Vdiving
p302
sI304
Vtube
p303
sI305
Vpower
p304
sI306
Vstone
p305
sI307
Vmeal
p306
sI308
Vact
p307
sI309
Vburning
p308
sI310
Vimage
p309
sI311
Vlegged
p310
sI312
Vfishes
p311
sI313
Vwade
p312
sI314
Vracquet
p313
sI315
Vher
p314
sI316
Vslopes
p315
sI317
Vbubble
p316
sI318
Vgliding
p317
sI319
Vwith
p318
sI320
Vpull
p319
sI321
Vdirty
p320
sI322
Vwatches
p321
sI323
Van
p322
sI324
Vas
p323
sI325
Vat
p324
sI326
Vwalks
p325
sI327
Vwatched
p326
sI328
Vcream
p327
sI329
Vcollie
p328
sI330
Vtight
p329
sI331
Vbeverage
p330
sI332
Vpuppy
p331
sI333
Vmotorcyclists
p332
sI334
Vwaving
p333
sI335
Vtricks
p334
sI336
Vgroom
p335
sI337
Vmask
p336
sI338
Vdyed
p337
sI339
Vhello
p338
sI340
Vmotocross
p339
sI341
Vtv
p340
sI342
Vlaughing
p341
sI343
Vto
p342
sI344
Vtail
p343
sI345
Vchewing
p344
sI346
Vsmile
p345
sI347
Vsplashing
p346
sI348
Vcase
p347
sI349
Vlaying
p348
sI350
Vlarge
p349
sI351
Vsand
p350
sI352
Vsmall
p351
sI353
Vpast
p352
sI354
Vpass
p353
sI355
Vfull
p354
sI356
Vpick
p355
sI357
Vaction
p356
sI358
Vfollowed
p357
sI359
Vindoors
p358
sI360
Vviz
p359
sI361
Vpulls
p360
sI362
Vridding
p361
sI363
Vpoodle
p362
sI364
Vpitching
p363
sI365
V6
sI366
Vmore
p364
sI367
Vteen
p365
sI368
Vdoor
p366
sI369
Vbatsman
p367
sI370
Vgravel
p368
sI371
Vmall
p369
sI372
Vmale
p370
sI373
Vbeautiful
p371
sI374
Vcampsite
p372
sI375
Vautumn
p373
sI376
Vdress
p374
sI377
Vhuge
p375
sI378
Vhugs
p376
sI379
Vcreature
p377
sI380
Vplant
p378
sI381
Vcountryside
p379
sI382
Vplane
p380
sI383
Vwaves
p381
sI384
Vbackyard
p382
sI385
Vplank
p383
sI386
Vvolleyball
p384
sI387
Vpatio
p385
sI388
Vpaper
p386
sI389
Vsigns
p387
sI390
Vsmiling
p388
sI391
Vits
p389
sI392
Vlicks
p390
sI393
Vindividuals
p391
sI394
Vsnowball
p392
sI395
Vweeds
p393
sI396
Vswimsuit
p394
sI397
Vbrunette
p395
sI398
Vbends
p396
sI399
Vreally
p397
sI400
Vhighway
p398
sI401
Vstomach
p399
sI402
Vowners
p400
sI403
Vnumber
p401
sI404
Vgazes
p402
sI405
Vheads
p403
sI406
Vjet
p404
sI407
Vfloaties
p405
sI408
Vwarmly
p406
sI409
Vstairs
p407
sI410
Vobama
p408
sI411
Vgraffiti
p409
sI412
Vblond
p410
sI413
Vpajamas
p411
sI414
Vdoberman
p412
sI415
Valso
p413
sI416
Vplay
p414
sI417
Vcover
p415
sI418
Vbarren
p416
sI419
Vbarrel
p417
sI420
Vgolf
p418
sI421
Vgold
p419
sI422
Vwrites
p420
sI423
Vpoodles
p421
sI424
Vboarding
p422
sI425
Vdandelion
p423
sI426
Vsunny
p424
sI427
Vpreparing
p425
sI428
Vbanner
p426
sI429
Vpaddling
p427
sI430
Vbird
p428
sI431
Vapproaching
p429
sI432
Vset
p430
sI433
Vcarrying
p431
sI434
Vsee
p432
sI435
Vsea
p433
sI436
Vknees
p434
sI437
V#
sI438
Vmovie
p435
sI439
Vcrosswalk
p436
sI440
Vcommunity
p437
sI441
Vdevil
p438
sI442
Vhitting
p439
sI443
Vresting
p440
sI444
Vsleeved
p441
sI445
Vsquirrel
p442
sI446
Vfire
p443
sI447
Vwheeler
p444
sI448
Vracer
p445
sI449
Vraces
p446
sI450
Vsleeves
p447
sI451
Vstraight
p448
sI452
Vleaning
p449
sI453
Vkissing
p450
sI454
Vducks
p451
sI455
Vchase
p452
sI456
Vfunny
p453
sI457
Vfetching
p454
sI458
Vleaps
p455
sI459
Vpicks
p456
sI460
Vperson
p457
sI461
Vbehind
p458
sI462
Vhelmeted
p459
sI463
Vparents
p460
sI464
Vlocation
p461
sI465
Vcrying
p462
sI466
Vskateboards
p463
sI467
Vflannel
p464
sI468
Vspins
p465
sI469
Vbounce
p466
sI470
Vbouncy
p467
sI471
Vpalm
p468
sI472
Vpale
p469
sI473
Vbe
p470
sI474
Vsanta
p471
sI475
Vby
p472
sI476
Vgarbage
p473
sI477
Vinto
p474
sI478
Vretrieving
p475
sI479
Vharnesses
p476
sI480
Vbridesmaids
p477
sI481
Vsuit
p478
sI482
Vopens
p479
sI483
Vposter
p480
sI484
Vatop
p481
sI485
Vlink
p482
sI486
Vline
p483
sI487
Vrelaxes
p484
sI488
Vup
p485
sI489
Vaerial
p486
sI490
Vlabrador
p487
sI491
Vcobblestone
p488
sI492
Vsides
p489
sI493
Vlane
p490
sI494
Vland
p491
sI495
Vpedestrians
p492
sI496
Vsummit
p493
sI497
Vhaving
p494
sI498
Vyoung
p495
sI499
Vgarden
p496
sI500
Vanimals
p497
sI501
Vtri
p498
sI502
Vtry
p499
sI503
Vrace
p500
sI504
Vrack
p501
sI505
Vvideo
p502
sI506
Venclosed
p503
sI507
Vindian
p504
sI508
Vflowing
p505
sI509
Vscenery
p506
sI510
Vleg
p507
sI511
Vgathered
p508
sI512
Vgreat
p509
sI513
Vmakes
p510
sI514
Vtools
p511
sI515
Vstanding
p512
sI516
Vzip
p513
sI517
Vnext
p514
sI518
Von
p515
sI519
Vopposing
p516
sI520
Vbaby
p517
sI521
Vballs
p518
sI522
Vpracticing
p519
sI523
Vthis
p520
sI524
Vathlete
p521
sI525
Vthin
p522
sI526
Vbent
p523
sI527
Vpieces
p524
sI528
Vhigh
p525
sI529
Vslip
p526
sI530
Vpaws
p527
sI531
Vtightrope
p528
sI532
Vanimal
p529
sI533
Vblocks
p530
sI534
Vhalter
p531
sI535
Vtied
p532
sI536
Vcounter
p533
sI537
Vrobot
p534
sI538
Vboxing
p535
sI539
Vdock
p536
sI540
Vsnake
p537
sI541
Vkiss
p538
sI542
Vcage
p539
sI543
Vscenic
p540
sI544
Vsniffing
p541
sI545
Vbeneath
p542
sI546
Vglasses
p543
sI547
Vwatery
p544
sI548
Vtents
p545
sI549
Vdoing
p546
sI550
Vjagged
p547
sI551
Vsteering
p548
sI552
Vscary
p549
sI553
Vmotorbikes
p550
sI554
Vscarf
p551
sI555
Vscene
p552
sI556
Vowner
p553
sI557
Vblows
p554
sI558
Vfestival
p555
sI559
Vstars
p556
sI560
Vshorts
p557
sI561
Vsteep
p558
sI562
Vmountainous
p559
sI563
Vdevice
p560
sI564
Vface
p561
sI565
Vpainting
p562
sI566
Vshirted
p563
sI567
Vbiker
p564
sI568
Vbikes
p565
sI569
Vgreenhouse
p566
sI570
Vbedroom
p567
sI571
Vrough
p568
sI572
Vjar
p569
sI573
Vtape
p570
sI574
Vriding
p571
sI575
Vmove
p572
sI576
Vhandle
p573
sI577
Vhandstand
p574
sI578
Vmotorcycle
p575
sI579
Vframe
p576
sI580
Vskateboarding
p577
sI581
Vpacked
p578
sI582
Vwire
p579
sI583
Vinteracting
p580
sI584
Vends
p581
sI585
Vcourtyard
p582
sI586
Vstaring
p583
sI587
Vdrum
p584
sI588
Vramp
p585
sI589
Vdoorway
p586
sI590
Vheart
p587
sI591
Vpounces
p588
sI592
Vfeather
p589
sI593
Vbathtub
p590
sI594
Vlush
p591
sI595
Vsite
p592
sI596
Vsits
p593
sI597
Vtattoo
p594
sI598
Vmoves
p595
sI599
Vdigging
p596
sI600
Vball
p597
sI601
Vdusk
p598
sI602
Vdrink
p599
sI603
Vdust
p600
sI604
Voveralls
p601
sI605
Voff
p602
sI606
Vdrawing
p603
sI607
Vresidential
p604
sI608
Vchecking
p605
sI609
Vfive
p606
sI610
Vdesk
p607
sI611
Vpier
p608
sI612
Vsleds
p609
sI613
Vgarage
p610
sI614
Vgymnastics
p611
sI615
Vdoes
p612
sI616
Vblurry
p613
sI617
Vstairway
p614
sI618
Vblowing
p615
sI619
Vstage
p616
sI620
Vsister
p617
sI621
Vswimming
p618
sI622
Vletters
p619
sI623
Vswimmers
p620
sI624
Vspots
p621
sI625
Vconstruction
p622
sI626
Vleashed
p623
sI627
Vtossed
p624
sI628
Vofficial
p625
sI629
Vsmooth
p626
sI630
Vplaced
p627
sI631
Vtosses
p628
sI632
Vleashes
p629
sI633
Vmonument
p630
sI634
Vbearing
p631
sI635
Vint
p632
sI636
Vmound
p633
sI637
Vponytail
p634
sI638
Vfrisbee
p635
sI639
Vbatting
p636
sI640
Vlift
p637
sI641
Vcompete
p638
sI642
Vfrolics
p639
sI643
Vall
p640
sI644
Vbike
p641
sI645
Vblanket
p642
sI646
Vcloseup
p643
sI647
Vdisc
p644
sI648
Vwhist
p645
sI649
Vchew
p646
sI650
Vmachines
p647
sI651
Vreligious
p648
sI652
Vabove
p649
sI653
Vfestive
p650
sI654
Vdaughter
p651
sI655
Vitems
p652
sI656
Vsmoke
p653
sI657
Vsweater
p654
sI658
Vbundled
p655
sI659
Vpierced
p656
sI660
Vyard
p657
sI661
Vblocking
p658
sI662
Vwork
p659
sI663
Vworn
p660
sI664
Vacrobatic
p661
sI665
Vboats
p662
sI666
Vbeach
p663
sI667
Vpizza
p664
sI668
Vladder
p665
sI669
Vafter
p666
sI670
Vlab
p667
sI671
Vlay
p668
sI672
Vlap
p669
sI673
Vheaddress
p670
sI674
Vgreen
p671
sI675
Vambulance
p672
sI676
Voffice
p673
sI677
Vbubbles
p674
sI678
Vthem
p675
sI679
Vcollide
p676
sI680
Vbreak
p677
sI681
Vband
p678
sI682
Vreaches
p679
sI683
Vthey
p680
sI684
Vbank
p681
sI685
Vbread
p682
sI686
Vrocky
p683
sI687
Vrocks
p684
sI688
Vhurdle
p685
sI689
Vlifted
p686
sI690
Vkneels
p687
sI691
Vlogs
p688
sI692
Vsled
p689
sI693
Vlogo
p690
sI694
Vflock
p691
sI695
Vmotorized
p692
sI696
Vsprints
p693
sI697
Vcameras
p694
sI698
Vsliding
p695
sI699
Vbarrier
p696
sI700
Vbaseman
p697
sI701
Vanother
p698
sI702
Vthick
p699
sI703
Velectronic
p700
sI704
Velevator
p701
sI705
Vdogs
p702
sI706
Vhappily
p703
sI707
Vtarget
p704
sI708
Vhike
p705
sI709
Vseated
p706
sI710
Vgraffitied
p707
sI711
Vtackled
p708
sI712
Vswims
p709
sI713
Vflops
p710
sI714
Vgoalie
p711
sI715
Vdo
p712
sI716
Vdj
p713
sI717
Vrailings
p714
sI718
Vruns
p715
sI719
Vcovering
p716
sI720
Vobserves
p717
sI721
Vaway
p718
sI722
Vgentleman
p719
sI723
Vkitchen
p720
sI724
Vcop
p721
sI725
Vcow
p722
sI726
Vrelaxing
p723
sI727
Vdroplets
p724
sI728
Vair
p725
sI729
Vcone
p726
sI730
Vwheeled
p727
sI731
Vperform
p728
sI732
Vplates
p729
sI733
Vbunny
p730
sI734
Vwheel
p731
sI735
Vhang
p732
sI736
Vrain
p733
sI737
Vhand
p734
sI738
Vthe
p735
sI739
Vmusical
p736
sI740
Vathletic
p737
sI741
Vphoto
p738
sI742
Vgoggles
p739
sI743
Vposes
p740
sI744
Vhills
p741
sI745
Vphotographer
p742
sI746
Vhilly
p743
sI747
Vspread
p744
sI748
Vboard
p745
sI749
Vphotographed
p746
sI750
Vcaps
p747
sI751
Vboxes
p748
sI752
Vboxer
p749
sI753
Vcape
p750
sI754
Vnight
p751
sI755
Vsecurity
p752
sI756
Vpurple
p753
sI757
Vasking
p754
sI758
Vpose
p755
sI759
Vpost
p756
sI760
Vtrophy
p757
sI761
Vnewspapers
p758
sI762
Vhorizon
p759
sI763
Vfloat
p760
sI764
Vbound
p761
sI765
Vbalances
p762
sI766
Vfight
p763
sI767
Vway
p764
sI768
Vwas
p765
sI769
Vwar
p766
sI770
Vsnowy
p767
sI771
Vdead
p768
sI772
Vmuscular
p769
sI773
Vdimly
p770
sI774
Vholding
p771
sI775
Vtest
p772
sI776
Vfairground
p773
sI777
Vtogether
p774
sI778
Vigloo
p775
sI779
Vdance
p776
sI780
Vhorseback
p777
sI781
Vfog
p778
sI782
Vbrown
p779
sI783
Vprotective
p780
sI784
Vturns
p781
sI785
Vguitars
p782
sI786
Vsidewalk
p783
sI787
Vupper
p784
sI788
Vappear
p785
sI789
Vuniform
p786
sI790
Vexplosion
p787
sI791
Vappears
p788
sI792
Vincoming
p789
sI793
Vflames
p790
sI794
Vpillow
p791
sI795
Vstarring
p792
sI796
Vhiking
p793
sI797
Vmarked
p794
sI798
Vuphill
p795
sI799
Vsnowboard
p796
sI800
Vseashore
p797
sI801
Vmarker
p798
sI802
Vmarket
p799
sI803
Vangels
p800
sI804
Vclub
p801
sI805
Voutstreached
p802
sI806
Vskaters
p803
sI807
Vcar
p804
sI808
Vcap
p805
sI809
Vcat
p806
sI810
Vcan
p807
sI811
Vbreeds
p808
sI812
Vphotographs
p809
sI813
Vpauses
p810
sI814
Vchin
p811
sI815
Vclothing
p812
sI816
Vairplane
p813
sI817
Vstaircase
p814
sI818
Vdive
p815
sI819
Vlifting
p816
sI820
Vgoal
p817
sI821
Vnoses
p818
sI822
Vcandles
p819
sI823
Vclover
p820
sI824
Vhaircut
p821
sI825
Vraised
p822
sI826
Vcold
p823
sI827
Vstill
p824
sI828
Vbirds
p825
sI829
Vcurly
p826
sI830
Vwindow
p827
sI831
Vscaling
p828
sI832
Vtails
p829
sI833
Vnot
p830
sI834
Vhall
p831
sI835
Vdown
p832
sI836
Vcliffs
p833
sI837
Vamusement
p834
sI838
Vshown
p835
sI839
Vspace
p836
sI840
Vlooking
p837
sI841
Vshows
p838
sI842
Vcars
p839
sI843
Vcard
p840
sI844
Vflying
p841
sI845
Vstriking
p842
sI846
Vmountainside
p843
sI847
Vflipping
p844
sI848
Vrink
p845
sI849
Vring
p846
sI850
Vsheep
p847
sI851
Vsheer
p848
sI852
Vchecked
p849
sI853
Vcaught
p850
sI854
Vbreed
p851
sI855
Vfriend
p852
sI856
Vmostly
p853
sI857
Vflowery
p854
sI858
Vflowers
p855
sI859
Vkarate
p856
sI860
Vapples
p857
sI861
Vdistorted
p858
sI862
Vequipment
p859
sI863
Vsunset
p860
sI864
Vclearing
p861
sI865
Vprofessional
p862
sI866
Vgerman
p863
sI867
Vground
p864
sI868
Vsnack
p865
sI869
Vstair
p866
sI870
Vonly
p867
sI871
Vpumpkin
p868
sI872
Vleather
p869
sI873
Vconcert
p870
sI874
Vasleep
p871
sI875
Vsport
p872
sI876
Vtackling
p873
sI877
V3
sI878
Vskyscraper
p874
sI879
Vbetween
p875
sI880
Vwheels
p876
sI881
Vcomes
p877
sI882
Vnearby
p878
sI883
Vfencers
p879
sI884
Vjeans
p880
sI885
Vpigtails
p881
sI886
Vsledding
p882
sI887
Vcycling
p883
sI888
Vtropical
p884
sI889
Vrubs
p885
sI890
Vfoggy
p886
sI891
Vskiers
p887
sI892
Vthese
p888
sI893
Vtrick
p889
sI894
Vinflatable
p890
sI895
Vembrace
p891
sI896
Vheels
p892
sI897
Vwaterway
p893
sI898
Vship
p894
sI899
Vfinish
p895
sI900
Vfoam
p896
sI901
Vfruit
p897
sI902
Vtheater
p898
sI903
Vbagpipes
p899
sI904
Vpitbull
p900
sI905
Vtossing
p901
sI906
Vdancers
p902
sI907
Vneon
p903
sI908
Vfoot
p904
sI909
Vtouch
p905
sI910
Vspeed
p906
sI911
Vsnowboarder
p907
sI912
Vsunshade
p908
sI913
Vswim
p909
sI914
Vread
p910
sI915
Voverlooks
p911
sI916
Vlistening
p912
sI917
Vstunt
p913
sI918
Vlady
p914
sI919
Vrear
p915
sI920
Vt
sI921
Vbusiness
p916
sI922
Vsniffs
p917
sI923
Vthrow
p918
sI924
Vpaints
p919
sI925
Vstare
p920
sI926
Vlog
p921
sI927
Vprepare
p922
sI928
Varea
p923
sI929
Vstart
p924
sI930
Vcats
p925
sI931
Vlow
p926
sI932
Vlot
p927
sI933
Vpitcher
p928
sI934
Vtrying
p929
sI935
Vstrollers
p930
sI936
Vbucket
p931
sI937
Vtutus
p932
sI938
Vwrestlers
p933
sI939
Vskateboarders
p934
sI940
Vbackstroke
p935
sI941
Vthat
p936
sI942
Vyou
p937
sI943
Vpeak
p938
sI944
Vpool
p939
sI945
Vbuilding
p940
sI946
Vembracing
p941
sI947
Vstrings
p942
sI948
Vskeleton
p943
sI949
Vpointing
p944
sI950
Vheadscarf
p945
sI951
Vcarpet
p946
sI952
Vgymnast
p947
sI953
Vfountain
p948
sI954
Vvery
p949
sI955
Vrobes
p950
sI956
Vbalancing
p951
sI957
Vfence
p952
sI958
Vstreets
p953
sI959
Vtussle
p954
sI960
Vdribbling
p955
sI961
Vunicycle
p956
sI962
Vballet
p957
sI963
Vtracks
p958
sI964
Vtrunk
p959
sI965
Varena
p960
sI966
Vcolored
p961
sI967
Vahead
p962
sI968
Vsoldier
p963
sI969
Vadvertising
p964
sI970
Vtrainer
p965
sI971
Vfamily
p966
sI972
Vtoys
p967
sI973
Vtakes
p968
sI974
Vtaken
p969
sI975
Vpushes
p970
sI976
Vpushed
p971
sI977
Vcows
p972
sI978
Vhamburgers
p973
sI979
Vheadfirst
p974
sI980
Vtries
p975
sI981
Vhorizontal
p976
sI982
Va
sI983
Vracetrack
p977
sI984
Vchopsticks
p978
sI985
Vinline
p979
sI986
Vhelp
p980
sI987
Vcyclists
p981
sI988
Vheld
p982
sI989
Vcarpeted
p983
sI990
Vfood
p984
sI991
Vninja
p985
sI992
Vkayaking
p986
sI993
Vstopped
p987
sI994
Vfairy
p988
sI995
Vheavy
p989
sI996
Vbeyond
p990
sI997
Vevent
p991
sI998
Vtravels
p992
sI999
Vsurrounded
p993
sI1000
Vsafety
p994
sI1001
Vbald
p995
sI1002
Vdirt
p996
sI1003
Vdune
p997
sI1004
Vhouses
p998
sI1005
Vbase
p999
sI1006
Vput
p1000
sI1007
Vcheering
p1001
sI1008
Vamerican
p1002
sI1009
Vinterviews
p1003
sI1010
Vrails
p1004
sI1011
Vhorse
p1005
sI1012
Vairborne
p1006
sI1013
Vstation
p1007
sI1014
Vsquirts
p1008
sI1015
Vselling
p1009
sI1016
Vstorm
p1010
sI1017
Vleotard
p1011
sI1018
Vgrocery
p1012
sI1019
Vgrey
p1013
sI1020
Vbride
p1014
sI1021
Vtoward
p1015
sI1022
Vmickey
p1016
sI1023
Valongside
p1017
sI1024
Vjuice
p1018
sI1025
Vcave
p1019
sI1026
Vofficers
p1020
sI1027
Vcamouflage
p1021
sI1028
Vlit
p1022
sI1029
Vtowards
p1023
sI1030
Vposition
p1024
sI1031
Vmobile
p1025
sI1032
Vclear
p1026
sI1033
Vclean
p1027
sI1034
Vhips
p1028
sI1035
Vcowgirl
p1029
sI1036
Vcoaster
p1030
sI1037
Vscooter
p1031
sI1038
Vcircle
p1032
sI1039
Vtrees
p1033
sI1040
Vpretending
p1034
sI1041
Vcompeting
p1035
sI1042
Vduring
p1036
sI1043
Vfootballers
p1037
sI1044
Vcatches
p1038
sI1045
Vcatcher
p1039
sI1046
Vsweaters
p1040
sI1047
Vgloves
p1041
sI1048
Vthrowing
p1042
sI1049
Vclose
p1043
sI1050
Vpictures
p1044
sI1051
Vfenced
p1045
sI1052
Vspray
p1046
sI1053
Vleague
p1047
sI1054
Vheaded
p1048
sI1055
Vskips
p1049
sI1056
Vbadminton
p1050
sI1057
Vclimbers
p1051
sI1058
Vempty
p1052
sI1059
Vpartly
p1053
sI1060
Vwet
p1054
sI1061
Vlook
p1055
sI1062
Vrope
p1056
sI1063
Vbikini
p1057
sI1064
Vbiking
p1058
sI1065
Vpack
p1059
sI1066
Vreads
p1060
sI1067
Vready
p1061
sI1068
Vmakeshift
p1062
sI1069
Vgestures
p1063
sI1070
Vhallway
p1064
sI1071
Voverweight
p1065
sI1072
Vuses
p1066
sI1073
Vcleaning
p1067
sI1074
Volder
p1068
sI1075
Vclears
p1069
sI1076
Vflaming
p1070
sI1077
Vlove
p1071
sI1078
Vshowing
p1072
sI1079
Vgame
p1073
sI1080
Vwings
p1074
sI1081
Vvests
p1075
sI1082
Vchairs
p1076
sI1083
Vcones
p1077
sI1084
Vsome
p1078
sI1085
Vlips
p1079
sI1086
Vrun
p1080
sI1087
Vrug
p1081
sI1088
Vstep
p1082
sI1089
Vsponsored
p1083
sI1090
Vblock
p1084
sI1091
Vwithin
p1085
sI1092
Vrolls
p1086
sI1093
Vhimself
p1087
sI1094
Vskull
p1088
sI1095
Vsimilar
p1089
sI1096
Vadults
p1090
sI1097
Vinnertube
p1091
sI1098
Vnap
p1092
sI1099
Vsmiles
p1093
sI1100
Vspectators
p1094
sI1101
Vcrouching
p1095
sI1102
Vdrag
p1096
sI1103
Vformal
p1097
sI1104
Vstructure
p1098
sI1105
Vgo
p1099
sI1106
Vsuits
p1100
sI1107
Vmuzzles
p1101
sI1108
Vkitty
p1102
sI1109
Vwave
p1103
sI1110
Vmuzzled
p1104
sI1111
Vsnowboards
p1105
sI1112
Vbutton
p1106
sI1113
Vmichael
p1107
sI1114
Vboots
p1108
sI1115
Vjump
p1109
sI1116
Vhose
p1110
sI1117
Vbooth
p1111
sI1118
Vplays
p1112
sI1119
Vpoles
p1113
sI1120
Vshoreline
p1114
sI1121
Vwig
p1115
sI1122
Vsparklers
p1116
sI1123
Vsinging
p1117
sI1124
Vcloud
p1118
sI1125
Vstrapped
p1119
sI1126
Vamidst
p1120
sI1127
Vcamera
p1121
sI1128
Vvehicle
p1122
sI1129
Vhiding
p1123
sI1130
Vcheeks
p1124
sI1131
Vcrosses
p1125
sI1132
Vcrossed
p1126
sI1133
Vmeet
p1127
sI1134
Vcontrol
p1128
sI1135
Vhalloween
p1129
sI1136
Vpulling
p1130
sI1137
Vhit
p1131
sI1138
Vskirt
p1132
sI1139
Vlocated
p1133
sI1140
Vseeds
p1134
sI1141
Vcircular
p1135
sI1142
Vfarm
p1136
sI1143
Vbelongings
p1137
sI1144
Vbathing
p1138
sI1145
Vincluding
p1139
sI1146
Vcostume
p1140
sI1147
Vsword
p1141
sI1148
Vhands
p1142
sI1149
Vfront
p1143
sI1150
Vuniversity
p1144
sI1151
Vslide
p1145
sI1152
Vcrossing
p1146
sI1153
Vshaking
p1147
sI1154
Vmulticolored
p1148
sI1155
Vspecial
p1149
sI1156
Vplayground
p1150
sI1157
Vumbrella
p1151
sI1158
Vflorida
p1152
sI1159
Vwading
p1153
sI1160
Vart
p1154
sI1161
Vlong
p1155
sI1162
Vattack
p1156
sI1163
Vwrapped
p1157
sI1164
Vpaved
p1158
sI1165
Vherself
p1159
sI1166
Vwaist
p1160
sI1167
Vphotograph
p1161
sI1168
Vbed
p1162
sI1169
Vbee
p1163
sI1170
Vexhibit
p1164
sI1171
Vhooping
p1165
sI1172
Vborder
p1166
sI1173
Vsprinkler
p1167
sI1174
Vso
p1168
sI1175
Vmountaintop
p1169
sI1176
Vbasket
p1170
sI1177
Vgallery
p1171
sI1178
Vcellphone
p1172
sI1179
Vtalk
p1173
sI1180
Vemerging
p1174
sI1181
Vkiddie
p1175
sI1182
Vindoor
p1176
sI1183
Vparked
p1177
sI1184
Vtire
p1178
sI1185
V(
sI1186
Vsurfs
p1179
sI1187
Vgray
p1180
sI1188
Vtrucks
p1181
sI1189
Vgrab
p1182
sI1190
Vspotted
p1183
sI1191
Vhardwood
p1184
sI1192
Vterrain
p1185
sI1193
Vcomputer
p1186
sI1194
Vwritten
p1187
sI1195
Vpinata
p1188
sI1196
Vtent
p1189
sI1197
Vbuckets
p1190
sI1198
Vkicking
p1191
sI1199
Vmerry
p1192
sI1200
Vpolice
p1193
sI1201
Vhits
p1194
sI1202
Vaqua
p1195
sI1203
Vjersey
p1196
sI1204
Vpolka
p1197
sI1205
Vtreat
p1198
sI1206
Vshoulders
p1199
sI1207
Vboth
p1200
sI1208
Vkicks
p1201
sI1209
Vsmoking
p1202
sI1210
Vchalk
p1203
sI1211
Vwaterskier
p1204
sI1212
Vsurface
p1205
sI1213
Vswinging
p1206
sI1214
Vlambs
p1207
sI1215
Vballoon
p1208
sI1216
Vstrange
p1209
sI1217
Vparty
p1210
sI1218
Vfireman
p1211
sI1219
Vreflection
p1212
sI1220
Vi
sI1221
Vobstacles
p1213
sI1222
Vwell
p1214
sI1223
Vawning
p1215
sI1224
Vdistant
p1216
sI1225
Vextends
p1217
sI1226
Vfootballer
p1218
sI1227
Vkick
p1219
sI1228
Vunseen
p1220
sI1229
Vbottoms
p1221
sI1230
Vintersection
p1222
sI1231
Vcandy
p1223
sI1232
Vsized
p1224
sI1233
Vshed
p1225
sI1234
Vhome
p1226
sI1235
Vgrinding
p1227
sI1236
Vmedieval
p1228
sI1237
Vreaching
p1229
sI1238
Vrodeo
p1230
sI1239
Vbeige
p1231
sI1240
Vpuppies
p1232
sI1241
Vtongue
p1233
sI1242
Vtreads
p1234
sI1243
Vmuseum
p1235
sI1244
Vcricket
p1236
sI1245
Vfountains
p1237
sI1246
Vhi
p1238
sI1247
Vear
p1239
sI1248
Veat
p1240
sI1249
Vhe
p1241
sI1250
Vcarriage
p1242
sI1251
Vpiece
p1243
sI1252
Vdisplay
p1244
sI1253
Vmarketplace
p1245
sI1254
Vkisses
p1246
sI1255
Vbalcony
p1247
sI1256
Vfencing
p1248
sI1257
Vstar
p1249
sI1258
Vemerges
p1250
sI1259
Vrural
p1251
sI1260
Vfriends
p1252
sI1261
Vusing
p1253
sI1262
Vprotest
p1254
sI1263
Vasian
p1255
sI1264
Vwhose
p1256
sI1265
Vswan
p1257
sI1266
Vteaching
p1258
sI1267
Vonstage
p1259
sI1268
Vrescue
p1260
sI1269
Vheading
p1261
sI1270
Vclothes
p1262
sI1271
Vjapanese
p1263
sI1272
Vacross
p1264
sI1273
Vcolourful
p1265
sI1274
Vwhile
p1266
sI1275
Vlights
p1267
sI1276
Vnew
p1268
sI1277
Vnet
p1269
sI1278
Vhelmets
p1270
sI1279
Vscreams
p1271
sI1280
Vwakeboard
p1272
sI1281
Vmen
p1273
sI1282
Vcardboard
p1274
sI1283
Vdry
p1275
sI1284
Vrests
p1276
sI1285
Vrafting
p1277
sI1286
Vjackets
p1278
sI1287
Vlandscape
p1279
sI1288
Varmy
p1280
sI1289
Vwatering
p1281
sI1290
Vbarks
p1282
sI1291
Varms
p1283
sI1292
Voverhead
p1284
sI1293
Vcalm
p1285
sI1294
Vtype
p1286
sI1295
Vwarm
p1287
sI1296
Vadult
p1288
sI1297
Vroom
p1289
sI1298
Vtrots
p1290
sI1299
Vroof
p1291
sI1300
Vfoliage
p1292
sI1301
Vsquirting
p1293
sI1302
Vgive
p1294
sI1303
Vlaughs
p1295
sI1304
Vscooters
p1296
sI1305
Vbushes
p1297
sI1306
Vshirt
p1298
sI1307
Vattempt
p1299
sI1308
Vthird
p1300
sI1309
Vdescends
p1301
sI1310
Vathletes
p1302
sI1311
Vdeck
p1303
sI1312
Vbefore
p1304
sI1313
Vsoaking
p1305
sI1314
Vsprays
p1306
sI1315
Vside
p1307
sI1316
Vbone
p1308
sI1317
Vnavy
p1309
sI1318
Venclosure
p1310
sI1319
Vturning
p1311
sI1320
Vascending
p1312
sI1321
Vhoodie
p1313
sI1322
Vbacklit
p1314
sI1323
Vshaggy
p1315
sI1324
Vstarts
p1316
sI1325
Vmurky
p1317
sI1326
Vhoop
p1318
sI1327
Vditch
p1319
sI1328
Vhood
p1320
sI1329
Vgirls
p1321
sI1330
V2
sI1331
Vbouncing
p1322
sI1332
Vgym
p1323
sI1333
Vdigs
p1324
sI1334
Vbegins
p1325
sI1335
Vdistance
p1326
sI1336
Vsilly
p1327
sI1337
Vspeaking
p1328
sI1338
Vmini
p1329
sI1339
Vbounces
p1330
sI1340
Vseen
p1331
sI1341
Vchest
p1332
sI1342
Vchess
p1333
sI1343
Vquarterback
p1334
sI1344
Vgrins
p1335
sI1345
Vnighttime
p1336
sI1346
Vdog
p1337
sI1347
Vpoints
p1338
sI1348
Vpointy
p1339
sI1349
Vdot
p1340
sI1350
Vattempts
p1341
sI1351
Vstepping
p1342
sI1352
Vfolded
p1343
sI1353
Vwearing
p1344
sI1354
Vcolorful
p1345
sI1355
Vstop
p1346
sI1356
Vtiled
p1347
sI1357
Vbat
p1348
sI1358
Vbar
p1349
sI1359
Vsailing
p1350
sI1360
Vfields
p1351
sI1361
Vbay
p1352
sI1362
Vbag
p1353
sI1363
Vears
p1354
sI1364
Vfluffy
p1355
sI1365
Vsail
p1356
sI1366
Vshaved
p1357
sI1367
Vartificial
p1358
sI1368
Vwetsuit
p1359
sI1369
Vpets
p1360
sI1370
Vwears
p1361
sI1371
Vpicking
p1362
sI1372
Vmaneuvers
p1363
sI1373
Vagainst
p1364
sI1374
Vgathering
p1365
sI1375
Vputs
p1366
sI1376
Vthree
p1367
sI1377
Vtiny
p1368
sI1378
Vgreyhound
p1369
sI1379
Vshovels
p1370
sI1380
Vtank
p1371
sI1381
Vreddish
p1372
sI1382
Vnear
p1373
sI1383
Vbalance
p1374
sI1384
Vseven
p1375
sI1385
Vis
p1376
sI1386
Vit
p1377
sI1387
Vcans
p1378
sI1388
Vin
p1379
sI1389
Vmouse
p1380
sI1390
Vbottles
p1381
sI1391
Vmake
p1382
sI1392
Vbelly
p1383
sI1393
Vshoveling
p1384
sI1394
Vsidelines
p1385
sI1395
Vbearded
p1386
sI1396
Vwaterfall
p1387
sI1397
Vkid
p1388
sI1398
Vbutter
p1389
sI1399
Vromp
p1390
sI1400
Vsmokes
p1391
sI1401
Vpractices
p1392
sI1402
Vleft
p1393
sI1403
Vjust
p1394
sI1404
Vsporting
p1395
sI1405
Vhuman
p1396
sI1406
Vtattooed
p1397
sI1407
Vbackground
p1398
sI1408
Vforested
p1399
sI1409
Vshoulder
p1400
sI1410
Vperforming
p1401
sI1411
Velderly
p1402
sI1412
Vpail
p1403
sI1413
Vcarts
p1404
sI1414
Vtrack
p1405
sI1415
Vskateboarder
p1406
sI1416
Vdunking
p1407
sI1417
Vyelling
p1408
sI1418
Vmagazine
p1409
sI1419
Vtinkerbell
p1410
sI1420
Vlies
p1411
sI1421
Vcarving
p1412
sI1422
Vparade
p1413
sI1423
Vtennis
p1414
sI1424
Vbatman
p1415
sI1425
Vfireworks
p1416
sI1426
Vlanding
p1417
sI1427
Vhikers
p1418
sI1428
Vattached
p1419
sI1429
Vbounds
p1420
sI1430
Vsticks
p1421
sI1431
Vclassic
p1422
sI1432
Vtoss
p1423
sI1433
Vcovers
p1424
sI1434
Vfashioned
p1425
sI1435
Vfloating
p1426
sI1436
Vleafless
p1427
sI1437
Vclings
p1428
sI1438
Vhanded
p1429
sI1439
Vdigital
p1430
sI1440
Vribbons
p1431
sI1441
Vsling
p1432
sI1442
Vpotato
p1433
sI1443
Vjacket
p1434
sI1444
Vteeth
p1435
sI1445
Vskis
p1436
sI1446
Vmilk
p1437
sI1447
Vfather
p1438
sI1448
Vstring
p1439
sI1449
Vdim
p1440
sI1450
Vbikers
p1441
sI1451
Vitem
p1442
sI1452
Vround
p1443
sI1453
Veating
p1444
sI1454
Vskiiers
p1445
sI1455
Vfilled
p1446
sI1456
Vmakeup
p1447
sI1457
Vfrench
p1448
sI1458
Vwait
p1449
sI1459
Vbox
p1450
sI1460
Vboy
p1451
sI1461
Vbow
p1452
sI1462
Vwomen
p1453
sI1463
Vboa
p1454
sI1464
Vmassage
p1455
sI1465
Vteenage
p1456
sI1466
Vkayak
p1457
sI1467
Vlockers
p1458
sI1468
Vsharing
p1459
sI1469
Vfly
p1460
sI1470
Vmaking
p1461
sI1471
Vbites
p1462
sI1472
Vplaza
p1463
sI1473
Vpink
p1464
sI1474
Vnecklaces
p1465
sI1475
Vpine
p1466
sI1476
Vskater
p1467
sI1477
Vskates
p1468
sI1478
Vtile
p1469
sI1479
Vpathway
p1470
sI1480
Vmat
p1471
sI1481
Vguys
p1472
sI1482
Vman
p1473
sI1483
Vneck
p1474
sI1484
Vafrican
p1475
sI1485
Vtall
p1476
sI1486
Vgesture
p1477
sI1487
Vcute
p1478
sI1488
Vshoes
p1479
sI1489
Vpointed
p1480
sI1490
Vpitch
p1481
sI1491
Vgroup
p1482
sI1492
Vmonitor
p1483
sI1493
Vinteresting
p1484
sI1494
Vtouching
p1485
sI1495
Vmarkings
p1486
sI1496
Vartist
p1487
sI1497
Vrock
p1488
sI1498
Vhardhat
p1489
sI1499
Vgirl
p1490
sI1500
Vliving
p1491
sI1501
Vjackson
p1492
sI1502
Vmonster
p1493
sI1503
Vsideways
p1494
sI1504
Vheadband
p1495
sI1505
Vunderwear
p1496
sI1506
Vwaiter
p1497
sI1507
Vheadphones
p1498
sI1508
Vfirst
p1499
sI1509
Vsuspended
p1500
sI1510
Vcarry
p1501
sI1511
Vlittle
p1502
sI1512
Vparticipates
p1503
sI1513
Veyes
p1504
sI1514
Veyed
p1505
sI1515
Vblurred
p1506
sI1516
Vtractor
p1507
sI1517
Vwinding
p1508
sI1518
Vhooded
p1509
sI1519
Vperformance
p1510
sI1520
Vskinned
p1511
sI1521
Vsheets
p1512
sI1522
Vpair
p1513
sI1523
Vtugging
p1514
sI1524
Vshop
p1515
sI1525
Vshot
p1516
sI1526
Vshow
p1517
sI1527
Vshoe
p1518
sI1528
Vcorner
p1519
sI1529
Vblack
p1520
sI1530
Vraising
p1521
sI1531
Vget
p1522
sI1532
Vspraying
p1523
sI1533
Vnearly
p1524
sI1534
Venjoys
p1525
sI1535
Vreading
p1526
sI1536
Vseat
p1527
sI1537
Vseal
p1528
sI1538
Vcamping
p1529
sI1539
Vchews
p1530
sI1540
Vchecks
p1531
sI1541
Vparent
p1532
sI1542
Vtub
p1533
sI1543
Vtug
p1534
sI1544
Vrugby
p1535
sI1545
Vmulticolor
p1536
sI1546
Vamong
p1537
sI1547
Vstretches
p1538
sI1548
Vstretched
p1539
sI1549
Vpacifier
p1540
sI1550
Varts
p1541
sI1551
Vgeyser
p1542
sI1552
Vshopping
p1543
sI1553
Vbmx
p1544
sI1554
Vrubbing
p1545
sI1555
Vcoffee
p1546
sI1556
Vsleeping
p1547
sI1557
Vmiddle
p1548
sI1558
Vbags
p1549
sI1559
Vdifferent
p1550
sI1560
Vpaw
p1551
sI1561
Vwoodland
p1552
sI1562
Vsame
p1553
sI1563
Vpad
p1554
sI1564
Vgreyhounds
p1555
sI1565
Vpan
p1556
sI1566
Vextended
p1557
sI1567
Vrunning
p1558
sI1568
Vclimbing
p1559
sI1569
Vdrain
p1560
sI1570
Vbicyclists
p1561
sI1571
Vbottle
p1562
sI1572
Voutdoor
p1563
sI1573
Vmoney
p1564
sI1574
Vgated
p1565
sI1575
Vbeagle
p1566
sI1576
Vpile
p1567
sI1577
Vchainsaw
p1568
sI1578
Vmom
p1569
sI1579
Vrailroad
p1570
sI1580
Vfacing
p1571
sI1581
Vaudience
p1572
sI1582
Veither
p1573
sI1583
Vdoll
p1574
sI1584
Vmatching
p1575
sI1585
Vknife
p1576
sI1586
Vraincoat
p1577
sI1587
Vunusual
p1578
sI1588
Vbroken
p1579
sI1589
Vdrums
p1580
sI1590
Visland
p1581
sI1591
Vroad
p1582
sI1592
Vlands
p1583
sI1593
Vharness
p1584
sI1594
Vstrip
p1585
sI1595
Vearphones
p1586
sI1596
Vtripod
p1587
sI1597
Vwalkway
p1588
sI1598
Vpeeking
p1589
sI1599
Vrapids
p1590
sI1600
Vdeer
p1591
sI1601
Vdeep
p1592
sI1602
Vfellow
p1593
sI1603
Vhound
p1594
sI1604
Vfield
p1595
sI1605
Vrollerblading
p1596
sI1606
Vstudents
p1597
sI1607
Vtackle
p1598
sI1608
Vdecorated
p1599
sI1609
Vcasts
p1600
sI1610
Vhusky
p1601
sI1611
Vstarting
p1602
sI1612
Vgrowling
p1603
sI1613
Vsuburban
p1604
sI1614
Vdollar
p1605
sI1615
Vtalks
p1606
sI1616
Vchildren
p1607
sI1617
Venjoying
p1608
sI1618
Vfall
p1609
sI1619
Vsquirted
p1610
sI1620
Vneighborhood
p1611
sI1621
Vgrabs
p1612
sI1622
Vribbon
p1613
sI1623
Vstool
p1614
sI1624
Vpublic
p1615
sI1625
Vtattoos
p1616
sI1626
Vsurfer
p1617
sI1627
Voperating
p1618
sI1628
Vtable
p1619
sI1629
Vstretching
p1620
sI1630
Vstorefront
p1621
sI1631
Vairport
p1622
sI1632
Vnarrow
p1623
sI1633
Vclapping
p1624
sI1634
Vdachshund
p1625
sI1635
Veye
p1626
sI1636
Vtwo
p1627
sI1637
Vsplash
p1628
sI1638
Vraft
p1629
sI1639
Vwindsurfer
p1630
sI1640
Vtown
p1631
sI1641
Vmarble
p1632
sI1642
Voverhang
p1633
sI1643
Vshare
p1634
sI1644
Vnumbers
p1635
sI1645
Vsharp
p1636
sI1646
Vcoming
p1637
sI1647
Vcrowded
p1638
sI1648
Vcoat
p1639
sI1649
Veats
p1640
sI1650
Vplaying
p1641
sI1651
Vinfant
p1642
sI1652
Vthrough
p1643
sI1653
Vcrawls
p1644
sI1654
Vgood
p1645
sI1655
Vmales
p1646
sI1656
Vwalls
p1647
sI1657
Vhuddle
p1648
sI1658
Vhouse
p1649
sI1659
Vfish
p1650
sI1660
Vhard
p1651
sI1661
Vfist
p1652
sI1662
Vbackpacks
p1653
sI1663
Vflower
p1654
sI1664
Vprint
p1655
sI1665
Vforeground
p1656
sI1666
Vcrouched
p1657
sI1667
Vseagulls
p1658
sI1668
Vbulls
p1659
sI1669
Vcrouches
p1660
sI1670
Vmembers
p1661
sI1671
Vbeginning
p1662
sI1672
Vdribbles
p1663
sI1673
Vjogs
p1664
sI1674
Vcups
p1665
sI1675
Vpaint
p1666
sI1676
Vleash
p1667
sI1677
Vlease
p1668
sI1678
Vpark
p1669
sI1679
Vpart
p1670
sI1680
Vyouth
p1671
sI1681
Vtricycles
p1672
sI1682
Vaged
p1673
sI1683
Vmountain
p1674
sI1684
Vdancing
p1675
sI1685
Vcouch
p1676
sI1686
Vlifts
p1677
sI1687
Veggs
p1678
sI1688
Vflute
p1679
sI1689
Vrefrigerator
p1680
sI1690
Vhugging
p1681
sI1691
Vhillside
p1682
sI1692
Vcarefully
p1683
sI1693
Vgiant
p1684
sI1694
V8
sI1695
Vboulder
p1685
sI1696
Vtoddlers
p1686
sI1697
Vmotorcycles
p1687
sI1698
Vtracksuit
p1688
sI1699
Vtackles
p1689
sI1700
Vfans
p1690
sI1701
Vfloats
p1691
sI1702
Vfolding
p1692
sI1703
Vrestaurant
p1693
sI1704
Vsparring
p1694
sI1705
Vpoint
p1695
sI1706
Vnewborn
p1696
sI1707
Vdances
p1697
sI1708
Vdancer
p1698
sI1709
Vraise
p1699
sI1710
Vdropping
p1700
sI1711
Vmeeting
p1701
sI1712
V4
sI1713
Vcyclist
p1702
sI1714
Vgas
p1703
sI1715
Vfur
p1704
sI1716
Vfun
p1705
sI1717
Vitself
p1706
sI1718
Vmoment
p1707
sI1719
Vstripe
p1708
sI1720
Vsandals
p1709
sI1721
Vlacrosse
p1710
sI1722
Vdark
p1711
sI1723
Vbeanie
p1712
sI1724
Vflags
p1713
sI1725
Vjumpsuit
p1714
sI1726
Vcut
p1715
sI1727
Vcup
p1716
sI1728
Vkites
p1717
sI1729
Vbridal
p1718
sI1730
Veaster
p1719
sI1731
Vexcited
p1720
sI1732
Vbin
p1721
sI1733
Vbig
p1722
sI1734
Vbib
p1723
sI1735
Vfollows
p1724
sI1736
Vglove
p1725
sI1737
Vcheerleader
p1726
sI1738
Vback
p1727
sI1739
Vmartial
p1728
sI1740
Vmirror
p1729
sI1741
Vcandle
p1730
sI1742
Vjewelry
p1731
sI1743
Vpet
p1732
sI1744
Vpen
p1733
sI1745
Vsneakers
p1734
sI1746
Vnose
p1735
sI1747
Vcameraman
p1736
sI1748
Vcostumes
p1737
sI1749
Vcostumed
p1738
sI1750
Vframed
p1739
sI1751
Vframes
p1740
sI1752
Vdownhill
p1741
sI1753
Vjockey
p1742
sI1754
Vhomemade
p1743
sI1755
Vforward
p1744
sI1756
Vopponent
p1745
sI1757
Vgroomsmen
p1746
sI1758
Vboys
p1747
sI1759
Vsort
p1748
sI1760
Vgeese
p1749
sI1761
Vstripped
p1750
sI1762
Vsingle
p1751
sI1763
Vcurb
p1752
sI1764
Vdragging
p1753
sI1765
Vfiretruck
p1754
sI1766
Vprepares
p1755
sI1767
Vdesert
p1756
sI1768
Voverlooking
p1757
sI1769
Vvehicles
p1758
sI1770
Vstroller
p1759
sI1771
Vsnowmobile
p1760
sI1772
Vpeanut
p1761
sI1773
Vhelps
p1762
sI1774
Vhuddled
p1763
sI1775
Vputting
p1764
sI1776
Vlegos
p1765
sI1777
Vchoppy
p1766
sI1778
Vride
p1767
sI1779
Vmural
p1768
sI1780
Vgiving
p1769
sI1781
Vpaddle
p1770
sI1782
Vkayaker
p1771
sI1783
Vexercise
p1772
sI1784
Vbody
p1773
sI1785
Vothers
p1774
sI1786
Vsing
p1775
sI1787
Vjockeys
p1776
sI1788
Vextreme
p1777
sI1789
Vclimb
p1778
sI1790
Vlimb
p1779
sI1791
Vthemselves
p1780
sI1792
Vcorndogs
p1781
sI1793
Vtrail
p1782
sI1794
Vtrain
p1783
sI1795
Vtunnel
p1784
sI1796
Vfetch
p1785
sI1797
Vnative
p1786
sI1798
Vholds
p1787
sI1799
Vformations
p1788
sI1800
Vforest
p1789
sI1801
Vonlookers
p1790
sI1802
Vbuildings
p1791
sI1803
Vwaters
p1792
sI1804
Vterrier
p1793
sI1805
Vchasing
p1794
sI1806
Vlines
p1795
sI1807
Vlined
p1796
sI1808
Vmustache
p1797
sI1809
Vhorns
p1798
sI1810
Vbunch
p1799
sI1811
Vsquatting
p1800
sI1812
Vmarsh
p1801
sI1813
Vcutting
p1802
sI1814
Vday
p1803
sI1815
Vstunts
p1804
sI1816
Vblindfolded
p1805
sI1817
Vhomeless
p1806
sI1818
Vsweatshirt
p1807
sI1819
Vpopping
p1808
sI1820
Vmats
p1809
sI1821
Voriental
p1810
sI1822
Vred
p1811
sI1823
Vapproaches
p1812
sI1824
Vretrieves
p1813
sI1825
Vretriever
p1814
sI1826
Vbackwards
p1815
sI1827
Vskateboard
p1816
sI1828
Vmonkey
p1817
sI1829
Vchased
p1818
sI1830
Vchases
p1819
sI1831
Vgear
p1820
sI1832
Vhave
p1821
sI1833
Vsidecar
p1822
sI1834
Vmid
p1823
sI1835
Vparka
p1824
sI1836
Veight
p1825
sI1837
Vhandbag
p1826
sI1838
Vgather
p1827
sI1839
Vskinny
p1828
sI1840
Vkite
p1829
sI1841
Vcoloring
p1830
sI1842
Vstripes
p1831
sI1843
Vbear
p1832
sI1844
Vbeam
p1833
sI1845
Vbeak
p1834
sI1846
Vstriped
p1835
sI1847
Vteams
p1836
sI1848
Vturkeys
p1837
sI1849
Vpuddle
p1838
sI1850
Vracket
p1839
sI1851
Vtuxedos
p1840
sI1852
Vattempting
p1841
sI1853
Vpattern
p1842
sI1854
Vpurses
p1843
sI1855
Vprogress
p1844
sI1856
Vtaking
p1845
sI1857
Vpassing
p1846
sI1858
Vbroom
p1847
sI1859
Vstatues
p1848
sI1860
Vdenim
p1849
sI1861
Vlaugh
p1850
sI1862
Vpouring
p1851
sI1863
Vswimmer
p1852
sI1864
Vmuddy
p1853
sI1865
Vcurtain
p1854
sI1866
Vjuggles
p1855
sI1867
Vridden
p1856
sI1868
Vorange
p1857
sI1869
Vbull
p1858
sI1870
Vmulti
p1859
sI1871
Vplaid
p1860
sI1872
Vplain
p1861
sI1873
Valmost
p1862
sI1874
Vtumbling
p1863
sI1875
Vinjured
p1864
sI1876
Vbinoculars
p1865
sI1877
Vnumbered
p1866
sI1878
Vcenter
p1867
sI1879
Vsets
p1868
sI1880
Vstores
p1869
sI1881
Vbarking
p1870
sI1882
Vseats
p1871
sI1883
Vlake
p1872
sI1884
Vbench
p1873
sI1885
Vbackpacker
p1874
sI1886
Vmatch
p1875
sI1887
Vlike
p1876
sI1888
Vsofa
p1877
sI1889
Vworks
p1878
sI1890
Vsoft
p1879
sI1891
Vswimsuits
p1880
sI1892
Vhair
p1881
sI1893
Vdunes
p1882
sI1894
Vabout
p1883
sI1895
Vboards
p1884
sI1896
Vsocks
p1885
sI1897
Vguard
p1886
sI1898
Vfemale
p1887
sI1899
Vridge
p1888
sI1900
Vfirefighter
p1889
sI1901
Vbuy
p1890
sI1902
Vbus
p1891
sI1903
Vbut
p1892
sI1904
Vbug
p1893
sI1905
Vpartially
p1894
sI1906
Vflip
p1895
sI1907
Vskating
p1896
sI1908
Vdomino
p1897
sI1909
Vtopless
p1898
sI1910
Vshooting
p1899
sI1911
Vpit
p1900
sI1912
Vcampus
p1901
sI1913
Vdressed
p1902
sI1914
Vjeeps
p1903
sI1915
Vsandy
p1904
sI1916
Vledge
p1905
sI1917
Vdresses
p1906
sI1918
Vhiker
p1907
sI1919
Vhikes
p1908
sI1920
Vbagpipe
p1909
sI1921
Vhats
p1910
sI1922
Vmuzzle
p1911
sI1923
Vfeeding
p1912
sI1924
Vpatches
p1913
sI1925
Vglider
p1914
sI1926
Vunder
p1915
sI1927
Vjack
p1916
sI1928
Vconfetti
p1917
sI1929
Vfireplace
p1918
sI1930
Vschool
p1919
sI1931
Vmotorcyclist
p1920
sI1932
Venjoy
p1921
sI1933
Vbicycle
p1922
sI1934
Vsurrounding
p1923
sI1935
Vstreet
p1924
sI1936
Vshining
p1925
sI1937
Vblue
p1926
sI1938
Vkicked
p1927
sI1939
Vramps
p1928
sI1940
Vstudio
p1929
sI1941
Vpath
p1930
sI1942
Vstares
p1931
sI1943
Vluggage
p1932
sI1944
Vleaves
p1933
sI1945
Vjogging
p1934
sI1946
Vstraw
p1935
sI1947
Vstrap
p1936
sI1948
Vvisible
p1937
sI1949
Vswings
p1938
sI1950
Vhospital
p1939
sI1951
Vlimousine
p1940
sI1952
Vphone
p1941
sI1953
Vshoot
p1942
sI1954
Vdolphin
p1943
sI1955
Vend
p1944
sI1956
Vsitting
p1945
sI1957
Vslalom
p1946
sI1958
Vdrummer
p1947
sI1959
Vgate
p1948
sI1960
Vpokes
p1949
sI1961
Vmouths
p1950
sI1962
Vmess
p1951
sI1963
Vjumping
p1952
sI1964
Vsparkler
p1953
sI1965
Vparallel
p1954
sI1966
Vspout
p1955
sI1967
Vupside
p1956
sI1968
Vjungle
p1957
sI1969
Venter
p1958
sI1970
Vover
p1959
sI1971
Vbeside
p1960
sI1972
Vwriting
p1961
sI1973
Vcroquet
p1962
sI1974
Veach
p1963
sI1975
Vgymnasium
p1964
sI1976
Vjuggling
p1965
sI1977
Vdriving
p1966
sI1978
Vhaired
p1967
sI1979
Vlaid
p1968
sI1980
Vsplashed
p1969
sI1981
Vrail
p1970
sI1982
Vfree
p1971
sI1983
Vformation
p1972
sI1984
Vsplashes
p1973
sI1985
Voutfits
p1974
sI1986
Vsoda
p1975
sI1987
Vonto
p1976
sI1988
Vindustrial
p1977
sI1989
Vpuck
p1978
sI1990
Vtoy
p1979
sI1991
Vtop
p1980
sI1992
Vtoo
p1981
sI1993
Vtoe
p1982
sI1994
Vurban
p1983
sI1995
Vceiling
p1984
sI1996
Vtool
p1985
sI1997
Vankle
p1986
sI1998
Vbeard
p1987
sI1999
Vbridge
p1988
sI2000
Vran
p1989
sI2001
Vtalking
p1990
sI2002
Vleafy
p1991
sI2003
Vsnow
p1992
sI2004
Vrides
p1993
sI2005
Vrider
p1994
sI2006
Vthough
p1995
sI2007
Vmetal
p1996
sI2008
Vpops
p1997
sI2009
Vcolors
p1998
sI2010
Vfuzzy
p1999
sI2011
Vsunglasses
p2000
sI2012
Vwatch
p2001
sI2013
Vwedding
p2002
sI2014
Vbeads
p2003
sI2015
Vrowing
p2004
sI2016
Vlicking
p2005
sI2017
Vjerseys
p2006
sI2018
Vmud
p2007
sI2019
Vmug
p2008
sI2020
Vfinger
p2009
sI2021
Vherding
p2010
sI2022
Vleaping
p2011
sI2023
Vwear
p2012
sI2024
Vparticipating
p2013
sI2025
Vplayers
p2014
sI2026
Vgames
p2015
sI2027
Vfaces
p2016
sI2028
Vbathroom
p2017
sI2029
Vbikinis
p2018
sI2030
Vropes
p2019
sI2031
Vbeen
p2020
sI2032
Vquickly
p2021
sI2033
Vbeer
p2022
sI2034
Vcatch
p2023
sI2035
Vpyramid
p2024
sI2036
Vhandrail
p2025
sI2037
Vcontaining
p2026
sI2038
Vforehead
p2027
sI2039
Vseveral
p2028
sI2040
Vpeaks
p2029
sI2041
Vsings
p2030
sI2042
Vmicrophone
p2031
sI2043
Vocean
p2032
sI2044
Vmother
p2033
sI2045
Vjean
p2034
sI2046
Vsnowman
p2035
sI2047
Vlaptop
p2036
sI2048
Vthumbs
p2037
sI2049
Vcollars
p2038
sI2050
Vfurry
p2039
sI2051
Vteenager
p2040
sI2052
Vturquoise
p2041
sI2053
Vcasting
p2042
sI2054
Vdescending
p2043
sI2055
Vapart
p2044
sI2056
Vmelting
p2045
sI2057
Vofficer
p2046
sI2058
Vpetting
p2047
sI2059
Vice
p2048
sI2060
Vicy
p2049
sI2061
Vchristmas
p2050
sI2062
Vkhaki
p2051
sI2063
Vcorn
p2052
sI2064
Vdalmatian
p2053
sI2065
Vcowboy
p2054
sI2066
Vdinner
p2055
sI2067
Vbath
p2056
sI2068
Vrounds
p2057
sI2069
Vsunlight
p2058
sI2070
Vstuck
p2059
sI2071
Vhead
p2060
sI2072
Vmedium
p2061
sI2073
Vsteers
p2062
sI2074
Vhear
p2063
sI2075
Vbrightly
p2064
sI2076
Vshines
p2065
sI2077
Voutstretched
p2066
sI2078
Vno
p2067
sI2079
Vsetting
p2068
sI2080
Vpapers
p2069
sI2081
Vtie
p2070
sI2082
Vpicture
p2071
sI2083
Vfootball
p2072
sI2084
Vyounger
p2073
sI2085
Vcoach
p2074
sI2086
Vrod
p2075
sI2087
Vleads
p2076
sI2088
Vrow
p2077
sI2089
Vflowered
p2078
sI2090
Vclouds
p2079
sI2091
Vpoliceman
p2080
sI2092
Vposts
p2081
sI2093
Vbrother
p2082
sI2094
Vcloudy
p2083
sI2095
Vsays
p2084
sI2096
Vdried
p2085
sI2097
Vport
p2086
sI2098
Vdrinks
p2087
sI2099
Vstands
p2088
sI2100
Vgoes
p2089
sI2101
Vhairy
p2090
sI2102
Vwater
p2091
sI2103
Vbaseball
p2092
sI2104
Vseagull
p2093
sI2105
Vscarves
p2094
sI2106
Vsports
p2095
sI2107
Vhandles
p2096
sI2108
Vchocolate
p2097
sI2109
Vcarnival
p2098
sI2110
Voverpass
p2099
sI2111
Vperformer
p2100
sI2112
Vfigure
p2101
sI2113
Vsailboat
p2102
sI2114
Vspeaks
p2103
sI2115
Vcrashes
p2104
sI2116
Vbirthday
p2105
sI2117
Vwakeboarder
p2106
sI2118
Vfloral
p2107
sI2119
Vbranches
p2108
sI2120
Vliquid
p2109
sI2121
Vblocked
p2110
sI2122
Vredheaded
p2111
sI2123
Vcheerleaders
p2112
sI2124
Vplatform
p2113
sI2125
Vswans
p2114
sI2126
Vunderneath
p2115
sI2127
Vwagon
p2116
sI2128
Vtrunks
p2117
sI2129
Vcatching
p2118
sI2130
Vtulips
p2119
sI2131
Voklahoma
p2120
sI2132
Vshe
p2121
sI2133
Vmaneuver
p2122
sI2134
Vhula
p2123
sI2135
Vuniformed
p2124
sI2136
Vmotion
p2125
sI2137
Vturn
p2126
sI2138
Vplace
p2127
sI2139
Vswing
p2128
sI2140
Vview
p2129
sI2141
Vpelican
p2130
sI2142
Vrafts
p2131
sI2143
Vsoaring
p2132
sI2144
Vfetches
p2133
sI2145
Valike
p2134
sI2146
Vplastic
p2135
sI2147
Vreturns
p2136
sI2148
Varcade
p2137
sI2149
Vwhite
p2138
sI2150
Vgives
p2139
sI2151
Vhug
p2140
sI2152
Vhut
p2141
sI2153
Vwide
p2142
sI2154
Vcards
p2143
sI2155
Vdriveway
p2144
sI2156
Vtwisting
p2145
sI2157
Vsells
p2146
sI2158
Vmarathon
p2147
sI2159
Vsuperman
p2148
sI2160
Vsilhouette
p2149
sI2161
Vsurf
p2150
sI2162
Vmultiple
p2151
sI2163
Vequestrian
p2152
sI2164
Vfalls
p2153
sI2165
Vslope
p2154
sI2166
Vwood
p2155
sI2167
Vbegging
p2156
sI2168
Vnaked
p2157
sI2169
Vclowns
p2158
sI2170
Vcollege
p2159
sI2171
Vparking
p2160
sI2172
Vbicyclist
p2161
sI2173
Voutside
p2162
sI2174
Vguitar
p2163
sI2175
Vcome
p2164
sI2176
Vcolor
p2165
sI2177
Vpot
p2166
sI2178
Vpop
p2167
sI2179
Vpole
p2168
sI2180
Vpolo
p2169
sI2181
Vteammate
p2170
sI2182
Vhelicopter
p2171
sI2183
Vcords
p2172
sI2184
Vdirection
p2173
sI2185
Vtiger
p2174
sI2186
Vspiderman
p2175
sI2187
Vcast
p2176
sI2188
Vshops
p2177
sI2189
Vvest
p2178
sI2190
Vtelephone
p2179
sI2191
Vcouples
p2180
sI2192
Vsomeone
p2181
sI2193
Vhelmet
p2182
sI2194
Vbowl
p2183
sI2195
Vbows
p2184
sI2196
Vbarefoot
p2185
sI2197
Vdriver
p2186
sI2198
Vdrives
p2187
sI2199
Vdriven
p2188
sI2200
Vstatue
p2189
sI2201
Vwithout
p2190
sI2202
Vdeflated
p2191
sI2203
Vkilt
p2192
sI2204
Vkneeling
p2193
sI2205
Vblow
p2194
sI2206
Vhind
p2195
sI2207
Vfurniture
p2196
sI2208
Vtowel
p2197
sI2209
Vbracelet
p2198
sI2210
Vcompetition
p2199
sI2211
Vshirtless
p2200
sI2212
Vstops
p2201
sI2213
Vwades
p2202
sI2214
Vpicnic
p2203
sI2215
Vjeep
p2204
sI2216
Vof
p2205
sI2217
Vstand
p2206
sI2218
Vor
p2207
sI2219
Vladies
p2208
sI2220
Vinstruments
p2209
sI2221
Vgarb
p2210
sI2222
Vthere
p2211
sI2223
Vvalley
p2212
sI2224
Vamongst
p2213
sI2225
Vgrass
p2214
sI2226
Vtoilet
p2215
sI2227
Vswords
p2216
sI2228
Vrubber
p2217
sI2229
V5
sI2230
Vunderwater
p2218
sI2231
Vtrash
p2219
sI2232
Vmidair
p2220
sI2233
Vcurve
p2221
sI2234
Vpeeks
p2222
sI2235
Vchinese
p2223
sI2236
Vdish
p2224
sI2237
Vfollow
p2225
sI2238
Vdisk
p2226
sI2239
Vapartment
p2227
sI2240
Vlining
p2228
sI2241
Vwoman
p2229
sI2242
Vsong
p2230
sI2243
Vfar
p2231
sI2244
Vgrinds
p2232
sI2245
Vfat
p2233
sI2246
Vfan
p2234
sI2247
Vticket
p2235
sI2248
Vtrench
p2236
sI2249
Vtee
p2237
sI2250
Vwhat
p2238
sI2251
Vsun
p2239
sI2252
Vsuv
p2240
sI2253
Vracing
p2241
sI2254
Vtags
p2242
sI2255
Vdirections
p2243
sI2256
Vobserving
p2244
sI2257
Vminiature
p2245
sI2258
Vsticking
p2246
sI2259
Vhorses
p2247
sI2260
Vflat
p2248
sI2261
Vgrabbing
p2249
sI2262
Vpairs
p2250
sI2263
Vflag
p2251
sI2264
Vstick
p2252
sI2265
Vsleeveless
p2253
sI2266
Vpolicemen
p2254
sI2267
Vwrestler
p2255
sI2268
Vwrestles
p2256
sI2269
Vpony
p2257
sI2270
Vchallenging
p2258
sI2271
Vpond
p2259
sI2272
Vcourt
p2260
sI2273
Vbackpacking
p2261
sI2274
Vbreaking
p2262
sI2275
Vspeeding
p2263
sI2276
Vgoat
p2264
sI2277
Vlighting
p2265
sI2278
Vsoftball
p2266
sI2279
Vshort
p2267
sI2280
Vshore
p2268
sI2281
Vshade
p2269
sI2282
Vhandlebars
p2270
sI2283
Vstyle
p2271
sI2284
Vresort
p2272
sI2285
Vsoccer
p2273
sI2286
Vsucking
p2274
sI2287
Vbigger
p2275
sI2288
Vsnowboarders
p2276
sI2289
Vgun
p2277
sI2290
Vhill
p2278
sI2291
Vguy
p2279
sI2292
Vthrown
p2280
sI2293
Vrollerblader
p2281
sI2294
Vrollerblades
p2282
sI2295
Vcircuit
p2283
sI2296
Vsnowboarding
p2284
sI2297
Vfallen
p2285
sI2298
Vthrows
p2286
sI2299
Vfancy
p2287
sI2300
Vfeet
p2288
sI2301
Vpasses
p2289
sI2302
Vleading
p2290
sI2303
Vinteract
p2291
sI2304
Vhangs
p2292
sI2305
Vcollar
p2293
sI2306
Voutcropping
p2294
sI2307
Vstore
p2295
sI2308
Vhotel
p2296
sI2309
Vuncut
p2297
sI2310
Vsurfboard
p2298
sI2311
Vstall
p2299
sI2312
Voutdoors
p2300
sI2313
Vtongues
p2301
sI2314
Vuniforms
p2302
sI2315
Velectric
p2303
sI2316
Vreach
p2304
sI2317
Vcigarette
p2305
sI2318
Vpatterned
p2306
sI2319
Vwindows
p2307
sI2320
Vtraditional
p2308
sI2321
Vlying
p2309
sI2322
Vstones
p2310
sI2323
Vasphalt
p2311
sI2324
Vheavily
p2312
sI2325
Vshepherd
p2313
sI2326
Vhis
p2314
sI2327
Vbend
p2315
sI2328
Vhim
p2316
sI2329
Vnecked
p2317
sI2330
Vbars
p2318
sI2331
Vstump
p2319
sI2332
Vbare
p2320
sI2333
Vare
p2321
sI2334
Varm
p2322
sI2335
Vbarn
p2323
sI2336
Vvarious
p2324
sI2337
Vrecently
p2325
sI2338
Vcreating
p2326
sI2339
Vattention
p2327
sI2340
Voutfit
p2328
sI2341
Vflies
p2329
sI2342
Vvillage
p2330
sI2343
Vgoats
p2331
sI2344
Vhoops
p2332
sI2345
Voverlook
p2333
sI2346
Vbrick
p2334
sI2347
Vreferee
p2335
sI2348
Vflight
p2336
sI2349
Vinstructor
p2337
sI2350
Vplants
p2338
sI2351
Vpedestrian
p2339
sI2352
Vfrozen
p2340
sI2353
Vballoons
p2341
sI2354
Vmoustache
p2342
sI2355
Vleans
p2343
sI2356
Vrollerskating
p2344
sI2357
Vobstacle
p2345
sI2358
Vcement
p2346
sI2359
Vmoving
p2347
sI2360
Vlower
p2348
sI2361
Vcheek
p2349
sI2362
Vchickens
p2350
sI2363
Vcheer
p2351
sI2364
Vedge
p2352
sI2365
Vpigeons
p2353
sI2366
Vtables
p2354
sI2367
Vworkers
p2355
sI2368
Vvendor
p2356
sI2369
Vscantily
p2357
sI2370
Vshaped
p2358
sI2371
Vsprinklers
p2359
sI2372
Vlitter
p2360
sI2373
Vclown
p2361
sI2374
Vjumps
p2362
sI2375
Vfiring
p2363
sI2376
Vsurfers
p2364
sI2377
Vrange
p2365
sI2378
Vcanal
p2366
sI2379
Vrows
p2367
sI2380
Vlone
p2368
sI2381
Vfast
p2369
sI2382
Vmountains
p2370
sI2383
Vcloth
p2371
sI2384
Vcrane
p2372
sI2385
Vsoars
p2373
sI2386
Vrally
p2374
sI2387
Vrainbow
p2375
sI2388
Vpeach
p2376
sI2389
Vpeace
p2377
sI2390
Vbacks
p2378
sI2391
Vnice
p2379
sI2392
Vhelping
p2380
sI2393
Vinsect
p2381
sI2394
Vwakeboarding
p2382
sI2395
Vposters
p2383
sI2396
Vwrestle
p2384
sI2397
Vrag
p2385
sI2398
Vbounding
p2386
sI2399
Vdrinking
p2387
sI2400
Vtutu
p2388
sI2401
Vsmaller
p2389
sI2402
Vwrestling
p2390
sI2403
Vperched
p2391
sI2404
Vtraveling
p2392
sI2405
Vwaiting
p2393
sI2406
Vattire
p2394
sI2407
Vpushing
p2395
sI2408
Vlarger
p2396
sI2409
Vshades
p2397
sI2410
Vleaving
p2398
sI2411
Vsubmerged
p2399
sI2412
Vshovel
p2400
sI2413
Vapple
p2401
sI2414
Vscales
p2402
sI2415
Vmotor
p2403
sI2416
Vduck
p2404
sI2417
Vgrassy
p2405
sI2418
Vfrom
p2406
sI2419
Vstream
p2407
sI2420
Vfrog
p2408
sI2421
Vfew
p2409
sI2422
Vporch
p2410
sI2423
Vrabbit
p2411
sI2424
Vincline
p2412
sI2425
Vgetting
p2413
sI2426
Vposing
p2414
sI2427
Vtag
p2415
sI2428
Vsomething
p2416
sI2429
Vtan
p2417
sI2430
Vsit
p2418
sI2431
Vbungee
p2419
sI2432
Vsix
p2420
sI2433
Vcamels
p2421
sI2434
Vtoddler
p2422
sI2435
Vhurdles
p2423
sI2436
Vmasks
p2424
sI2437
Vlight
p2425
sI2438
Vstraps
p2426
sI2439
Vcrawling
p2427
sI2440
Vnecklace
p2428
sI2441
Vwhilst
p2429
sI2442
Vlooks
p2430
sI2443
Vlounge
p2431
sI2444
Vterriers
p2432
sI2445
Vcovered
p2433
sI2446
Vcrowds
p2434
sI2447
Vcrash
p2435
sI2448
Vpractice
p2436
sI2449
Vout
p2437
sI2450
Vparasailing
p2438
sI2451
Vperforms
p2439
sI2452
Vpours
p2440
sI2453
Vriver
p2441
sI2454
Vbiting
p2442
sI2455
Vbouquet
p2443
sI2456
Vumbrellas
p2444
sI2457
Vsnowcapped
p2445
sI2458
Vtheir
p2446
sI2459
Vagility
p2447
sI2460
Vshallow
p2448
sI2461
Vdreadlocks
p2449
sI2462
Vslides
p2450
sI2463
Vreflecting
p2451
sI2464
Vsculpture
p2452
sI2465
Vteenagers
p2453
sI2466
Vwhich
p2454
sI2467
Vcombat
p2455
sI2468
Vwho
p2456
sI2469
Vclass
p2457
sI2470
Vpipe
p2458
sI2471
Vstove
p2459
sI2472
Vchicken
p2460
sI2473
Vpiano
p2461
sI2474
Vwatching
p2462
sI2475
Vcutout
p2463
sI2476
Vwaterfalls
p2464
sI2477
Vclosed
p2465
sI2478
Vpants
p2466
sI2479
Vopening
p2467
sI2480
Vjoy
p2468
sI2481
Vcake
p2469
sI2482
Vcanopy
p2470
sI2483
Vwall
p2471
sI2484
Vwalk
p2472
sI2485
Vmotorbike
p2473
sI2486
Vpainted
p2474
sI2487
Vgnawing
p2475
sI2488
Vwild
p2476
sI2489
Vcross
p2477
sI2490
Vmember
p2478
sI2491
Vgets
p2479
sI2492
Vcellphones
p2480
sI2493
Vfighting
p2481
sI2494
Vbandanna
p2482
sI2495
Vbending
p2483
sI2496
Vrocket
p2484
sI2497
Vcamel
p2485
sI2498
Vhalf
p2486
sI2499
Vfishing
p2487
sI2500
Vsky
p2488
sI2501
Vbook
p2489
sI2502
Vski
p2490
sI2503
Videntical
p2491
sI2504
Vfacial
p2492
sI2505
Vmiami
p2493
sI2506
Vchurch
p2494
sI2507
Vleaf
p2495
sI2508
Vlead
p2496
sI2509
Vlean
p2497
sI2510
Vleap
p2498
sI2511
Vcampfire
p2499
sI2512
Vearrings
p2500
sI2513
Vdangling
p2501
sI2514
Vpasta
p2502
sI2515
Vcarried
p2503
sI2516
Vsaddle
p2504
sI2517
Vcolumn
p2505
sI2518
Vcarries
p2506
sI2519
Vcarrier
p2507
sI2520
Vown
p2508
sI2521
Vwilderness
p2509
sI2522
Vweather
p2510
sI2523
Vbrush
p2511
sI2524
Vrowboat
p2512
sI2525
Vvan
p2513
sI2526
Vcliff
p2514
sI2527
Vmade
p2515
sI2528
Vrecord
p2516
sI2529
Vbelow
p2517
sI2530
Vmaroon
p2518
sI2531
Vboardwalk
p2519
sI2532
Vtrotting
p2520
sI2533
Vguitarist
p2521
sI2534
Vwaterskiing
p2522
sI2535
Vother
p2523
sI2536
Vbranch
p2524
sI2537
Vpumps
p2525
sI2538
S'clock'
p2526
sI2539
S'colour'
p2527
sI2540
S''
sI2541
S'headlights'
p2528
sI2542
S'facade'
p2529
sI2543
S'bricked'
p2530
sI2544
S'multi-line'
p2531
sI2545
S'system'
p2532
sI2546
S'electrical'
p2533
sI2547
S'data'
p2534
sI2548
S'outlets'
p2535
sI2549
S'desktop'
p2536
sI2550
S'keyboard'
p2537
sI2551
S'two-drawer'
p2538
sI2552
S'filing'
p2539
sI2553
S'cabinet'
p2540
sI2554
S'wireless'
p2541
sI2555
S'tower'
p2542
sI2556
S'file'
p2543
sI2557
S'outlet'
p2544
sI2558
S'plugs'
p2545
sI2559
S'curtains'
p2546
sI2560
S'sailboats'
p2547
sI2561
S'padding'
p2548
sI2562
S'plush'
p2549
sI2563
S'drawn'
p2550
sI2564
S'mainly'
p2551
sI2565
S'cables'
p2552
sI2566
S'switched'
p2553
sI2567
S'books'
p2554
sI2568
S'shelf'
p2555
sI2569
S'clutered'
p2556
sI2570
S'shiny'
p2557
sI2571
S'granite'
p2558
sI2572
S'lid'
p2559
sI2573
S'drawer'
p2560
sI2574
S'fork'
p2561
sI2575
S'sticky'
p2562
sI2576
S'note'
p2563
sI2577
S'writings'
p2564
sI2578
S'drawers'
p2565
sI2579
S'cd'
p2566
sI2580
S'tshirt'
p2567
sI2581
S'cpu'
p2568
sI2582
S'venetian'
p2569
sI2583
S'blinds'
p2570
sI2584
S'tacked'
p2571
sI2585
S'cubicle'
p2572
sI2586
S'charger'
p2573
sI2587
S'cable'
p2574
sI2588
S'cpus'
p2575
sI2589
S'cork'
p2576
sI2590
S'towers'
p2577
sI2591
S'bookshelf'
p2578
sI2592
S'infront'
p2579
sI2593
S'composition'
p2580
sI2594
S'surge'
p2581
sI2595
S'protector'
p2582
sI2596
S'inbox'
p2583
sI2597
S'trays'
p2584
sI2598
S'speaker'
p2585
sI2599
S'reams'
p2586
sI2600
S'armrests'
p2587
sI2601
S'scissors'
p2588
sI2602
S'brass'
p2589
sI2603
S'lamp'
p2590
sI2604
S'completed'
p2591
sI2605
S'jigsaw'
p2592
sI2606
S'puzzle'
p2593
sI2607
S'wrist'
p2594
sI2608
S'lotion'
p2595
sI2609
S'sleeve'
p2596
sI2610
S'gazzette'
p2597
sI2611
S'thing'
p2598
sI2612
S'powder'
p2599
sI2613
S'paperbag'
p2600
sI2614
S'crack'
p2601
sI2615
S'screens'
p2602
sI2616
S'curved'
p2603
sI2617
S'sodas'
p2604
sI2618
S'coke'
p2605
sI2619
S'mousepad'
p2606
sI2620
S'connection'
p2607
sI2621
S'wires'
p2608
sI2622
S'mounted'
p2609
sI2623
S'printer'
p2610
sI2624
S'socket'
p2611
sI2625
S'album'
p2612
sI2626
S"adult's"
p2613
sI2627
S'wristwatch'
p2614
sI2628
S"woman's"
p2615
sI2629
S'balconies'
p2616
sI2630
S'rise'
p2617
sI2631
S'roadway'
p2618
sI2632
S'shadows'
p2619
sI2633
S'daytime'
p2620
sI2634
S'marks'
p2621
sI2635
S'growing'
p2622
sI2636
S'lightpost'
p2623
sI2637
S'rectangular'
p2624
sI2638
S'switchs'
p2625
sI2639
S'dominant'
p2626
sI2640
S'vase'
p2627
sI2641
S'reflections'
p2628
sI2642
S'ramshackle'
p2629
sI2643
S'pockets'
p2630
sI2644
S'hazy'
p2631
sI2645
S'beached'
p2632
sI2646
S'words'
p2633
sI2647
S'"blue'
p2634
sI2648
S'"music'
p2635
sI2649
S'draws'
p2636
sI2650
S'stainless'
p2637
sI2651
S'steel'
p2638
sI2652
S'sink'
p2639
sI2653
S'drainer'
p2640
sI2654
S'canister'
p2641
sI2655
S'toaster'
p2642
sI2656
S'oven'
p2643
sI2657
S'kleenex'
p2644
sI2658
S'built'
p2645
sI2659
S'dishwasher'
p2646
sI2660
S'breadbox'
p2647
sI2661
S'switch'
p2648
sI2662
S'knives'
p2649
sI2663
S'holder'
p2650
sI2664
S'faucet'
p2651
sI2665
S'utensils'
p2652
sI2666
S'cabinets'
p2653
sI2667
S'hung'
p2654
sI2668
S'countertop'
p2655
sI2669
S'shinny'
p2656
sI2670
S'whisky'
p2657
sI2671
S'rods'
p2658
sI2672
S'decorative'
p2659
sI2673
S'layout'
p2660
sI2674
S'desks'
p2661
sI2675
S'tiles'
p2662
sI2676
S'bagels'
p2663
sI2677
S'cooker'
p2664
sI2678
S'ware'
p2665
sI2679
S'kettle'
p2666
sI2680
S'ceramic'
p2667
sI2681
S'fridge'
p2668
sI2682
S'fruits'
p2669
sI2683
S'metallic'
p2670
sI2684
S'clothe'
p2671
sI2685
S'woven'
p2672
sI2686
S'curving'
p2673
sI2687
S'clutter'
p2674
sI2688
S'mustard'
p2675
sI2689
S'edges'
p2676
sI2690
S'lampstand'
p2677
sI2691
S'colours'
p2678
sI2692
S'arranged'
p2679
sI2693
S'microwave'
p2680
sI2694
S'gallon'
p2681
sI2695
S'jug'
p2682
sI2696
S'mixer'
p2683
sI2697
S'unplugged'
p2684
sI2698
S'cord'
p2685
sI2699
S'matches'
p2686
sI2700
S'opener'
p2687
sI2701
S'entertainment'
p2688
sI2702
S'knob'
p2689
sI2703
S'plastics'
p2690
sI2704
S'chalkboard'
p2691
sI2705
S'projector'
p2692
sI2706
S'rolled'
p2693
sI2707
S"chair's"
p2694
sI2708
S'meters'
p2695
sI2709
S'wastebasket'
p2696
sI2710
S'faded'
p2697
sI2711
S'taxis'
p2698
sI2712
S'suvs'
p2699
sI2713
S'multistory'
p2700
sI2714
S'staples'
p2701
sI2715
S'signage'
p2702
sI2716
S'taxi'
p2703
sI2717
S'whole'
p2704
sI2718
S'buses'
p2705
sI2719
S'cab'
p2706
sI2720
S'planter'
p2707
sI2721
S'arrow'
p2708
sI2722
S'four-door'
p2709
sI2723
S"there's"
p2710
sI2724
S"man's"
p2711
sI2725
S'duct'
p2712
sI2726
S'remote'
p2713
sI2727
S'highlighter'
p2714
sI2728
S'stack'
p2715
sI2729
S'backing'
p2716
sI2730
S'files'
p2717
sI2731
S'tidal'
p2718
sI2732
S'ripple'
p2719
sI2733
S'sedan'
p2720
sI2734
S'lighted'
p2721
sI2735
S'pay'
p2722
sI2736
S'entrance'
p2723
sI2737
S'double'
p2724
sI2738
S'triangle'
p2725
sI2739
S'archway'
p2726
sI2740
S'exiting'
p2727
sI2741
S'trimmed'
p2728
sI2742
S'license'
p2729
sI2743
S'storage'
p2730
sI2744
S'moped'
p2731
sI2745
S'grate'
p2732
sI2746
S'reflector'
p2733
sI2747
S'condition'
p2734
sI2748
S'units'
p2735
sI2749
S'coffee-maker'
p2736
sI2750
S'blades'
p2737
sI2751
S'windmill'
p2738
sI2752
S'blade'
p2739
sI2753
S'bricks'
p2740
sI2754
S'pavers'
p2741
sI2755
S'balding'
p2742
sI2756
S'bulky'
p2743
sI2757
S'television'
p2744
sI2758
S'tapes'
p2745
sI2759
S"dvd's"
p2746
sI2760
S'doormat'
p2747
sI2761
S'hinges'
p2748
sI2762
S'vhs'
p2749
sI2763
S'doorknob'
p2750
sI2764
S'vent'
p2751
sI2765
S'dining'
p2752
sI2766
S'vcr'
p2753
sI2767
S'wii'
p2754
sI2768
S'grilled'
p2755
sI2769
S'breast'
p2756
sI2770
S'cauliflower'
p2757
sI2771
S'potatoes'
p2758
sI2772
S'bangs'
p2759
sI2773
S'parted'
p2760
sI2774
S'contents'
p2761
sI2775
S'lavender'
p2762
sI2776
S'zippered'
p2763
sI2777
S'eyeglasses'
p2764
sI2778
S'wavy'
p2765
sI2779
S'darker'
p2766
sI2780
S'name'
p2767
sI2781
S'panels'
p2768
sI2782
S'glowing'
p2769
sI2783
S'moniter'
p2770
sI2784
S'folder'
p2771
sI2785
S'flaps'
p2772
sI2786
S'projection'
p2773
sI2787
S'panel'
p2774
sI2788
S'blue-green'
p2775
sI2789
S'countertops'
p2776
sI2790
S'burners'
p2777
sI2791
S'basin'
p2778
sI2792
S'maker'
p2779
sI2793
S'tea'
p2780
sI2794
S'dial'
p2781
sI2795
S'lever'
p2782
sI2796
S'computers'
p2783
sI2797
S'maple'
p2784
sI2798
S'indexed'
p2785
sI2799
S'library'
p2786
sI2800
S'alarm'
p2787
sI2801
S'stacks'
p2788
sI2802
S'turquois'
p2789
sI2803
S'tassels'
p2790
sI2804
S'corners'
p2791
sI2805
S'tray'
p2792
sI2806
S'ornate'
p2793
sI2807
S'design'
p2794
sI2808
S'ottoman'
p2795
sI2809
S'lampshade'
p2796
sI2810
S'cushioned'
p2797
sI2811
S'knobs'
p2798
sI2812
S'oval'
p2799
sI2813
S'sunbathing'
p2800
sI2814
S'ripples'
p2801
sI2815
S'shelves'
p2802
sI2816
S'lace'
p2803
sI2817
S'trinkets'
p2804
sI2818
S'plan'
p2805
sI2819
S'tips'
p2806
sI2820
S'dresser'
p2807
sI2821
S'illuminated'
p2808
sI2822
S'zebra'
p2809
sI2823
S'skin'
p2810
sI2824
S'rectangle'
p2811
sI2825
S'roudn'
p2812
sI2826
S'chandelier'
p2813
sI2827
S'stenciling'
p2814
sI2828
S'globes'
p2815
sI2829
S'napkin'
p2816
sI2830
S'cereal'
p2817
sI2831
S'strawberry'
p2818
sI2832
S'egg'
p2819
sI2833
S'grape'
p2820
sI2834
S'grae'
p2821
sI2835
S'shrimp'
p2822
sI2836
S'porcelain'
p2823
sI2837
S'tablecloth'
p2824
sI2838
S'forks'
p2825
sI2839
S'spoon'
p2826
sI2840
S'label'
p2827
sI2841
S'twine'
p2828
sI2842
S'wrap'
p2829
sI2843
S'envelope'
p2830
sI2844
S'saucer'
p2831
sI2845
S'slice'
p2832
sI2846
S'salt'
p2833
sI2847
S'pepper'
p2834
sI2848
S'shakers'
p2835
sI2849
S'flame'
p2836
sI2850
S'silverware'
p2837
sI2851
S'arched'
p2838
sI2852
S'settings'
p2839
sI2853
S'wineglasses'
p2840
sI2854
S'paintings'
p2841
sI2855
S'controller'
p2842
sI2856
S'console'
p2843
sI2857
S'word'
p2844
sI2858
S'hola'
p2845
sI2859
S'displayed'
p2846
sI2860
S'xbox'
p2847
sI2861
S'halo'
p2848
sI2862
S'rim'
p2849
sI2863
S'taillight'
p2850
sI2864
S'utility'
p2851
sI2865
S'hydrant'
p2852
sI2866
S'siding'
p2853
sI2867
S'story'
p2854
sI2868
S'coveralls'
p2855
sI2869
S'sticker'
p2856
sI2870
S'awnings'
p2857
sI2871
S'navel'
p2858
sI2872
S'quartz'
p2859
sI2873
S'spatula'
p2860
sI2874
S'foil'
p2861
sI2875
S'armrest'
p2862
sI2876
S'modem'
p2863
sI2877
S'pocket'
p2864
sI2878
S"lady's"
p2865
sI2879
S'blouse'
p2866
sI2880
S'neatly'
p2867
sI2881
S'nightstand'
p2868
sI2882
S'closet'
p2869
sI2883
S'mirrored'
p2870
sI2884
S'headboard'
p2871
sI2885
S'wrapper'
p2872
sI2886
S'bedfront'
p2873
sI2887
S'fresh'
p2874
sI2888
S'absorbs'
p2875
sI2889
S'hinge'
p2876
sI2890
S'lamps'
p2877
sI2891
S'acoustic'
p2878
sI2892
S'dvds'
p2879
sI2893
S'grapes'
p2880
sI2894
S'teapot'
p2881
sI2895
S'sliver'
p2882
sI2896
S'platter'
p2883
sI2897
S'speckled'
p2884
sI2898
S'trim'
p2885
sI2899
S'united'
p2886
sI2900
S'states'
p2887
sI2901
S'kingdom'
p2888
sI2902
S'connector'
p2889
sI2903
S'manicured'
p2890
sI2904
S'hedges'
p2891
sI2905
S'mulch'
p2892
sI2906
S'upright'
p2893
sI2907
S'shaadows'
p2894
sI2908
S'washing'
p2895
sI2909
S'cloudless'
p2896
sI2910
S'foamy'
p2897
sI2911
S'zebras'
p2898
sI2912
S'mane'
p2899
sI2913
S'ivy'
p2900
sI2914
S'greenish'
p2901
sI2915
S'riverbank'
p2902
sI2916
S'providing'
p2903
sI2917
S'entry'
p2904
sI2918
S'lettering'
p2905
sI2919
S'receptacles'
p2906
sI2920
S'bushy'
p2907
sI2921
S'spire'
p2908
sI2922
S'illuminted'
p2909
sI2923
S'inlay'
p2910
sI2924
S'linked'
p2911
sI2925
S'meter'
p2912
sI2926
S'drit'
p2913
sI2927
S'headlight'
p2914
sI2928
S'handbags'
p2915
sI2929
S'sale'
p2916
sI2930
S'slender'
p2917
sI2931
S'locked'
p2918
sI2932
S'grating'
p2919
sI2933
S'carton'
p2920
sI2934
S'cheerios'
p2921
sI2935
S'plug'
p2922
sI2936
S'sill'
p2923
sI2937
S'tums'
p2924
sI2938
S'anti-acid'
p2925
sI2939
S'sponge'
p2926
sI2940
S'styrofoam'
p2927
sI2941
S'ray'
p2928
sI2942
S'onion'
p2929
sI2943
S'stem'
p2930
sI2944
S'petal'
p2931
sI2945
S"car's"
p2932
sI2946
S'blossoms'
p2933
sI2947
S'kiwi'
p2934
sI2948
S'pear'
p2935
sI2949
S'mark'
p2936
sI2950
S'supporting'
p2937
sI2951
S'scaffolding'
p2938
sI2952
S'loop'
p2939
sI2953
S'entryway'
p2940
sI2954
S'satellite'
p2941
sI2955
S'escape'
p2942
sI2956
S'speakers'
p2943
sI2957
S'floors'
p2944
sI2958
S'liquor'
p2945
sI2959
S'juliet'
p2946
sI2960
S'containers'
p2947
sI2961
S'outdated'
p2948
sI2962
S'most'
p2949
sI2963
S'windshield'
p2950
sI2964
S'armless'
p2951
sI2965
S'overcast'
p2952
sI2966
S'primarily'
p2953
sI2967
S'landscaping'
p2954
sI2968
S'dentist'
p2955
sI2969
S'napkins'
p2956
sI2970
S'stacked'
p2957
sI2971
S'waitress'
p2958
sI2972
S'dispenser'
p2959
sI2973
S'shaker'
p2960
sI2974
S'laundry'
p2961
sI2975
S'dollies'
p2962
sI2976
S'glitter'
p2963
sI2977
S"stove's"
p2964
sI2978
S'utinsils'
p2965
sI2979
S'keypad'
p2966
sI2980
S'booster'
p2967
sI2981
S'headrest'
p2968
sI2982
S'pillows'
p2969
sI2983
S'thermostat'
p2970
sI2984
S'grand'
p2971
sI2985
S'level'
p2972
sI2986
S'sound'
p2973
sI2987
S'tortilla'
p2974
sI2988
S'chips'
p2975
sI2989
S'breaded'
p2976
sI2990
S'sauce'
p2977
sI2991
S'trey'
p2978
sI2992
S'vegetables'
p2979
sI2993
S'types'
p2980
sI2994
S'sushi'
p2981
sI2995
S'crackers'
p2982
sI2996
S'cheese'
p2983
sI2997
S'blender'
p2984
sI2998
S'quaker'
p2985
sI2999
S'oats'
p2986
sI3000
S'cabbage'
p2987
sI3001
S'treet'
p2988
sI3002
S'lion'
p2989
sI3003
S'lions'
p2990
sI3004
S'grassland'
p2991
sI3005
S'auditorium'
p2992
sI3006
S'chimney'
p2993
sI3007
S'meat'
p2994
sI3008
S'raw'
p2995
sI3009
S'eiffel'
p2996
sI3010
S'forefront'
p2997
sI3011
S"driver's"
p2998
sI3012
S'toyota'
p2999
sI3013
S'cabin'
p3000
sI3014
S'season'
p3001
sI3015
S'eaten'
p3002
sI3016
S'sandwich'
p3003
sI3017
S'tomato'
p3004
sI3018
S'grains'
p3005
sI3019
S'rice'
p3006
sI3020
S'glare'
p3007
sI3021
S'prongs'
p3008
sI3022
S'dumpster'
p3009
sI3023
S'evergreen'
p3010
sI3024
S'majestic'
p3011
sI3025
S'finial'
p3012
sI3026
S'hutch'
p3013
sI3027
S'tabletop'
p3014
sI3028
S'fixtures'
p3015
sI3029
S'breaker'
p3016
sI3030
S'toned'
p3017
sI3031
S'movies'
p3018
sI3032
S'screened'
p3019
sI3033
S'minivan'
p3020
sI3034
S'payphone'
p3021
sI3035
S'blues'
p3022
sI3036
S'reds'
p3023
sI3037
S'bacground'
p3024
sI3038
S'dent'
p3025
sI3039
S'oranges'
p3026
sI3040
S'concentrating'
p3027
sI3041
S'windowsill'
p3028
sI3042
S'pots'
p3029
sI3043
S'moulding'
p3030
sI3044
S'wallpaper'
p3031
sI3045
S'wing'
p3032
sI3046
S'backed'
p3033
sI3047
S'accent'
p3034
sI3048
S'filigre'
p3035
sI3049
S'taffic'
p3036
sI3050
S'signal'
p3037
sI3051
S'cane'
p3038
sI3052
S'details'
p3039
sI3053
S'ribbed'
p3040
sI3054
S'stoplight'
p3041
sI3055
S'globe'
p3042
sI3056
S'ambulences'
p3043
sI3057
S"cab's"
p3044
sI3058
S"ambulence's"
p3045
sI3059
S'fully'
p3046
sI3060
S'pamphet'
p3047
sI3061
S'shawl'
p3048
sI3062
S'shelter'
p3049
sI3063
S'pillar'
p3050
sI3064
S'cinnamon'
p3051
sI3065
S'radio'
p3052
sI3066
S'jars'
p3053
sI3067
S'spices'
p3054
sI3068
S'lapel'
p3055
sI3069
S'laniard'
p3056
sI3070
S'earring'
p3057
sI3071
S'bue'
p3058
sI3072
S'forklift'
p3059
sI3073
S'corrugated'
p3060
sI3074
S'butternife'
p3061
sI3075
S'diced'
p3062
sI3076
S'cooked'
p3063
sI3077
S'drumstick'
p3064
sI3078
S'posting'
p3065
sI3079
S'pasture'
p3066
sI3080
S'graze'
p3067
sI3081
S'freshly'
p3068
sI3082
S'mowed'
p3069
sI3083
S'steeple'
p3070
sI3084
S'loft'
p3071
sI3085
S'let'
p3072
sI3086
S'circulate'
p3073
sI3087
S'ponytailed'
p3074
sI3088
S'mercedes'
p3075
sI3089
S'benz'
p3076
sI3090
S'red-haired'
p3077
sI3091
S'opened'
p3078
sI3092
S'radiator'
p3079
sI3093
S'fourescent'
p3080
sI3094
S'wallpapered'
p3081
sI3095
S'mantle'
p3082
sI3096
S'vintage'
p3083
sI3097
S'heater'
p3084
sI3098
S"couch's"
p3085
sI3099
S'size'
p3086
sI3100
S'backend'
p3087
sI3101
S'dumpsters'
p3088
sI3102
S'againsst'
p3089
sI3103
S'lantern'
p3090
sI3104
S'mine'
p3091
sI3105
S'beams'
p3092
sI3106
S'cracks'
p3093
sI3107
S'miner'
p3094
sI3108
S"miner's"
p3095
sI3109
S'unlit'
p3096
sI3110
S'compact'
p3097
sI3111
S'e'
sI3112
S'x'
sI3113
S'entel'
p3098
sI3114
S'windowed'
p3099
sI3115
S'skybox'
p3100
sI3116
S'spouting'
p3101
sI3117
S'sunlit'
p3102
sI3118
S'corded'
p3103
sI3119
S'crib'
p3104
sI3120
S'grinning'
p3105
sI3121
S'squinting'
p3106
sI3122
S'eyebrow'
p3107
sI3123
S'address'
p3108
sI3124
S'thorny'
p3109
sI3125
S'tee-shirt'
p3110
sI3126
S'graphics'
p3111
sI3127
S'depicting'
p3112
sI3128
S'chalice'
p3113
sI3129
S'stained'
p3114
sI3130
S'conversation'
p3115
sI3131
S'sunligh'
p3116
sI3132
S'petals'
p3117
sI3133
S'retaining'
p3118
sI3134
S'trough'
p3119
sI3135
S'bookcase'
p3120
sI3136
S'briefcase'
p3121
sI3137
S'founatin'
p3122
sI3138
S'columns'
p3123
sI3139
S'galss'
p3124
sI3140
S'headstone'
p3125
sI3141
S'grave'
p3126
sI3142
S'property'
p3127
sI3143
S'route'
p3128
sI3144
S'permit'
p3129
sI3145
S'solid'
p3130
sI3146
S'wipers'
p3131
sI3147
S'leave'
p3132
sI3148
S'gazebo'
p3133
sI3149
S'rearview'
p3134
sI3150
S'cushions'
p3135
sI3151
S'burger'
p3136
sI3152
S'fries'
p3137
sI3153
S'gravy'
p3138
sI3154
S'spare'
p3139
sI3155
S'backrest'
p3140
sI3156
S'decals'
p3141
sI3157
S'geckos'
p3142
sI3158
S'bumpers'
p3143
sI3159
S'vents'
p3144
sI3160
S'lock'
p3145
sI3161
S'shutters'
p3146
sI3162
S'spiral'
p3147
sI3163
S'banister'
p3148
sI3164
S'pedestal'
p3149
sI3165
S'thee'
p3150
sI3166
S'hedge'
p3151
sI3167
S'brake'
p3152
sI3168
S'emblem'
p3153
sI3169
S'access'
p3154
sI3170
S'glassed'
p3155
sI3171
S'rooftop'
p3156
sI3172
S'shaft'
p3157
sI3173
S'wrought'
p3158
sI3174
S'iron'
p3159
sI3175
S'bands'
p3160
sI3176
S'windshild'
p3161
sI3177
S'dwelling'
p3162
sI3178
S'roman'
p3163
sI3179
S'numerals'
p3164
sI3180
S'antique'
p3165
sI3181
S'recycle'
p3166
sI3182
S'lamppost'
p3167
sI3183
S'marking'
p3168
sI3184
S'trashbin'
p3169
sI3185
S'crosswalks'
p3170
sI3186
S'arrows'
p3171
sI3187
S'shrubbery'
p3172
sI3188
S'shutter'
p3173
sI3189
S'townhouses'
p3174
sI3190
S'townhomes'
p3175
sI3191
S'crossover'
p3176
sI3192
S'exhaust'
p3177
sI3193
S'pipes'
p3178
sI3194
S'faint'
p3179
sI3195
S'refridgerator'
p3180
sI3196
S'map'
p3181
sI3197
S'rust'
p3182
sI3198
S'bicycyle'
p3183
sI3199
S'collection'
p3184
sI3200
S'drains'
p3185
sI3201
S'missing'
p3186
sI3202
S'paneled'
p3187
sI3203
S'delivery'
p3188
sI3204
S'buidling'
p3189
sI3205
S'chainlink'
p3190
sI3206
S'whiteboard'
p3191
sI3207
S'pencil'
p3192
sI3208
S'mugs'
p3193
sI3209
S'grips'
p3194
sI3210
S'erase'
p3195
sI3211
S'envelopes'
p3196
sI3212
S'badges'
p3197
sI3213
S'crt'
p3198
sI3214
S'pc'
p3199
sI3215
S'supply'
p3200
sI3216
S'tipped'
p3201
sI3217
S'notes'
p3202
sI3218
S'dell'
p3203
sI3219
S'divider'
p3204
sI3220
S'soap'
p3205
sI3221
S'straws'
p3206
sI3222
S'sided'
p3207
sI3223
S'carafe'
p3208
sI3224
S'packaging'
p3209
sI3225
S'earl'
p3210
sI3226
S'packets'
p3211
sI3227
S'darjeeling'
p3212
sI3228
S'herb'
p3213
sI3229
S'mint'
p3214
sI3230
S'squeeze'
p3215
sI3231
S'wired'
p3216
sI3232
S'multi-lane'
p3217
sI3233
S'streetlight'
p3218
sI3234
S'planted'
p3219
sI3235
S'flowerbox'
p3220
sI3236
S'limo'
p3221
sI3237
S'volkswagen'
p3222
sI3238
S'cargo'
p3223
sI3239
S'tells'
p3224
sI3240
S'everyone'
p3225
sI3241
S'plugged'
p3226
sI3242
S'fixture'
p3227
sI3243
S'glossy'
p3228
sI3244
S'conference'
p3229
sI3245
S'paneling'
p3230
sI3246
S'upholstered'
p3231
sI3247
S'horseshoe'
p3232
sI3248
S'pumkin'
p3233
sI3249
S'scrimble'
p3234
sI3250
S'grill'
p3235
sI3251
S'nine'
p3236
sI3252
S'bell'
p3237
sI3253
S'carved'
p3238
sI3254
S'jack-o-lantern'
p3239
sI3255
S'hosue'
p3240
sI3256
S'drainage'
p3241
sI3257
S'shape'
p3242
sI3258
S'tablet'
p3243
sI3259
S'monitors'
p3244
sI3260
S'puncher'
p3245
sI3261
S'thermos'
p3246
sI3262
S'tupperware'
p3247
sI3263
S'"do'
p3248
sI3264
S'one-way'
p3249
sI3265
S'stickers'
p3250
sI3266
S'octogonal'
p3251
sI3267
S'housing'
p3252
sI3268
S'directional'
p3253
sI3269
S'grid'
p3254
sI3270
S'processing'
p3255
sI3271
S'unit'
p3256
sI3272
S'bookshelves'
p3257
sI3273
S'keyboards'
p3258
sI3274
S'waste'
p3259
sI3275
S'bulletin'
p3260
sI3276
S'mac'
p3261
sI3277
S'subwoofer'
p3262
sI3278
S'printed'
p3263
sI3279
S'aid'
p3264
sI3280
S'xpect'
p3265
sI3281
S'swivel'
p3266
sI3282
S'keys'
p3267
sI3283
S'ink'
p3268
sI3284
S'shlef'
p3269
sI3285
S'typing'
p3270
sI3286
S'plum'
p3271
sI3287
S'tissue'
p3272
sI3288
S'sweat'
p3273
sI3289
S'fleece'
p3274
sI3290
S'liner'
p3275
sI3291
S'casters'
p3276
sI3292
S'clipboard'
p3277
sI3293
S'programming'
p3278
sI3294
S'motocycles'
p3279
sI3295
S'zipped'
p3280
sI3296
S'mail'
p3281
sI3297
S'screensaver'
p3282
sI3298
S'slanted'
p3283
sI3299
S'groove'
p3284
sI3300
S'circles'
p3285
sI3301
S'elephants'
p3286
sI3302
S'designs'
p3287
sI3303
S'canvas'
p3288
sI3304
S'slingshot'
p3289
sI3305
S't-shirt'
p3290
sI3306
S'urinal'
p3291
sI3307
S'pins'
p3292
sI3308
S'moss'
p3293
sI3309
S'armchair'
p3294
sI3310
S'convertible'
p3295
sI3311
S'letter'
p3296
sI3312
S'c'
sI3313
S'crates'
p3297
sI3314
S'crate'
p3298
sI3315
S'exit'
p3299
sI3316
S'google'
p3300
sI3317
S'youtube'
p3301
sI3318
S'whine'
p3302
sI3319
S'notebook'
p3303
sI3320
S'key'
p3304
sI3321
S'coca'
p3305
sI3322
S'cola'
p3306
sI3323
S'bartender'
p3307
sI3324
S'baret'
p3308
sI3325
S'fern'
p3309
sI3326
S'blood'
p3310
sI3327
S'pressure'
p3311
sI3328
S'cuff'
p3312
sI3329
S"nurse's"
p3313
sI3330
S'stethescope'
p3314
sI3331
S'nurses'
p3315
sI3332
S'chart'
p3316
sI3333
S'salad'
p3317
sI3334
S'strapless'
p3318
sI3335
S'buttoned'
p3319
sI3336
S'buttons'
p3320
sI3337
S'nametag'
p3321
sI3338
S'scooted'
p3322
sI3339
S'median'
p3323
sI3340
S'passenger'
p3324
sI3341
S'marina'
p3325
sI3342
S'masts'
p3326
sI3343
S'mopeds'
p3327
sI3344
S'p'
sI3345
S'passed'
p3328
sI3346
S'artwork'
p3329
sI3347
S'louvers'
p3330
sI3348
S'latters'
p3331
sI3349
S'weating'
p3332
sI3350
S'kickstand'
p3333
sI3351
S'handlebar'
p3334
sI3352
S'antennas'
p3335
sI3353
S'kiosk'
p3336
sI3354
S'sacks'
p3337
sI3355
S'lemons'
p3338
sI3356
S'pebbles'
p3339
sI3357
S'feathers'
p3340
sI3358
S'hexagon'
p3341
sI3359
S'paving'
p3342
sI3360
S'fringed'
p3343
sI3361
S'brimmed'
p3344
sI3362
S'sack'
p3345
sI3363
S'produce'
p3346
sI3364
S'crumbling'
p3347
sI3365
S'la'
p3348
sI3366
S'daily'
p3349
sI3367
S'hade'
p3350
sI3368
S'vw'
p3351
sI3369
S'grean'
p3352
sI3370
S'piles'
p3353
sI3371
S'supplies'
p3354
sI3372
S'batch'
p3355
sI3373
S'bishop'
p3356
sI3374
S'pub'
p3357
sI3375
S'sewer'
p3358
sI3376
S'shaded'
p3359
sI3377
S'cracked'
p3360
sI3378
S'maintained'
p3361
sI3379
S'patina'
p3362
sI3380
S'oner'
p3363
sI3381
S'mailbox'
p3364
sI3382
S'thirteen'
p3365
sI3383
S'partition'
p3366
sI3384
S'sandal'
p3367
sI3385
S"it's"
p3368
sI3386
S'pane'
p3369
sI3387
S'lazy'
p3370
sI3388
S'susan'
p3371
sI3389
S'utensil'
p3372
sI3390
S'baseboard'
p3373
sI3391
S'fluorescent'
p3374
sI3392
S'insulated'
p3375
sI3393
S'overspill'
p3376
sI3394
S'section'
p3377
sI3395
S'beds'
p3378
sI3396
S'nissan'
p3379
sI3397
S'clouded'
p3380
sI3398
S'vegetation'
p3381
sI3399
S'anin'
p3382
sI3400
S'brownstone'
p3383
sI3401
S"men's"
p3384
sI3402
S'unzipped'
p3385
sI3403
S'gates'
p3386
sI3404
S'pillars'
p3387
sI3405
S'cloths'
p3388
sI3406
S'vanity'
p3389
sI3407
S'salmon'
p3390
sI3408
S'hanger'
p3391
sI3409
S'comforter'
p3392
sI3410
S'imprint'
p3393
sI3411
S'evian'
p3394
sI3412
S'brand'
p3395
sI3413
S'menu'
p3396
sI3414
S'service'
p3397
sI3415
S'rose'
p3398
sI3416
S'drapes'
p3399
sI3417
S'towels'
p3400
sI3418
S'armoire'
p3401
sI3419
S'automatic'
p3402
sI3420
S'stopper'
p3403
sI3421
S'sweetner'
p3404
sI3422
S'stirring'
p3405
sI3423
S'individual'
p3406
sI3424
S'polished'
p3407
sI3425
S'chrome'
p3408
sI3426
S'heating'
p3409
sI3427
S'conditioning'
p3410
sI3428
S'olive'
p3411
sI3429
S'notepad'
p3412
sI3430
S'bedspread'
p3413
sI3431
S'pamphlet'
p3414
sI3432
S'connected'
p3415
sI3433
S'build'
p3416
sI3434
S'bases'
p3417
sI3435
S'pendant'
p3418
sI3436
S'goods'
p3419
sI3437
S'tissues'
p3420
sI3438
S'carpeting'
p3421
sI3439
S'bulbs'
p3422
sI3440
S'cupboards'
p3423
sI3441
S'divides'
p3424
sI3442
S'porches'
p3425
sI3443
S'recessed'
p3426
sI3444
S'recliner'
p3427
sI3445
S'removed'
p3428
sI3446
S'remax'
p3429
sI3447
S'flooring'
p3430
sI3448
S'quilt'
p3431
sI3449
S'cedar'
p3432
sI3450
S'shingles'
p3433
sI3451
S'shingle'
p3434
sI3452
S'placard'
p3435
sI3453
S'extension'
p3436
sI3454
S'sockets'
p3437
sI3455
S'shut'
p3438
sI3456
S'flushing'
p3439
sI3457
S'piping'
p3440
sI3458
S'rocking'
p3441
sI3459
S'easel'
p3442
sI3460
S'calendar'
p3443
sI3461
S'leafs'
p3444
sI3462
S'dryer'
p3445
sI3463
S'toiletries'
p3446
sI3464
S'knot'
p3447
sI3465
S'sleigh'
p3448
sI3466
S'chord'
p3449
sI3467
S'parquet'
p3450
sI3468
S'drying'
p3451
sI3469
S'footboard'
p3452
sI3470
S'handled'
p3453
sI3471
S'thermoses'
p3454
sI3472
S'tapestry'
p3455
sI3473
S'pineapple'
p3456
sI3474
S'candlestick'
p3457
sI3475
S'folk'
p3458
sI3476
S'coloful'
p3459
sI3477
S'rugs'
p3460
sI3478
S'moccasins'
p3461
sI3479
S'dishes'
p3462
sI3480
S'upon'
p3463
sI3481
S'oils'
p3464
sI3482
S'martini'
p3465
sI3483
S'toothpick'
p3466
sI3484
S'bonsai'
p3467
sI3485
S'china'
p3468
sI3486
S'bulb'
p3469
sI3487
S'mahogany'
p3470
sI3488
S'taper'
p3471
sI3489
S'directors'
p3472
sI3490
S'matched'
p3473
sI3491
S'perky'
p3474
sI3492
S"dog's"
p3475
sI3493
S'magnet'
p3476
sI3494
S'switchplate'
p3477
sI3495
S'bottled'
p3478
sI3496
S'dragon'
p3479
sI3497
S'objects'
p3480
sI3498
S'based'
p3481
sI3499
S'pillowcase'
p3482
sI3500
S'heinecken'
p3483
sI3501
S'liners'
p3484
sI3502
S'lemon'
p3485
sI3503
S'designed'
p3486
sI3504
S'oil'
p3487
sI3505
S'cigarettes'
p3488
sI3506
S'corkscrew'
p3489
sI3507
S'ivory'
p3490
sI3508
S'love-seat'
p3491
sI3509
S'frontier'
p3492
sI3510
S'figurine'
p3493
sI3511
S'rifle'
p3494
sI3512
S'human-like'
p3495
sI3513
S'varying'
p3496
sI3514
S'sizes'
p3497
sI3515
S'shapes'
p3498
sI3516
S'sausage'
p3499
sI3517
S'package'
p3500
sI3518
S'champagne'
p3501
sI3519
S'pearl'
p3502
sI3520
S'tinted'
p3503
sI3521
S'unable'
p3504
sI3522
S'patios'
p3505
sI3523
S'ont'
p3506
sI3524
S'pidgeon'
p3507
sI3525
S'barricade'
p3508
sI3526
S'lampost'
p3509
sI3527
S'buildng'
p3510
sI3528
S'signals'
p3511
sI3529
S'signify'
p3512
sI3530
S'da'
p3513
sI3531
S'vinci'
p3514
sI3532
S'code'
p3515
sI3533
S'advertise'
p3516
sI3534
S'mcdonalds'
p3517
sI3535
S'hotdog'
p3518
sI3536
S'gucci'
p3519
sI3537
S'bmw'
p3520
sI3538
S'headling'
p3521
sI3539
S'gir'
p3522
sI3540
S'cell'
p3523
sI3541
S'skyscrapers'
p3524
sI3542
S"water's"
p3525
sI3543
S'gargoyle'
p3526
sI3544
S'insignia'
p3527
sI3545
S'slats'
p3528
sI3546
S'cobblestones'
p3529
sI3547
S'crooked'
p3530
sI3548
S'hardware'
p3531
sI3549
S'portion'
p3532
sI3550
S'sweate'
p3533
sI3551
S'aquamarine'
p3534
sI3552
S'skylight'
p3535
sI3553
S'antenna'
p3536
sI3554
S'tote'
p3537
sI3555
S'paver'
p3538
sI3556
S'aa'
p3539
sI3557
S'rent'
p3540
sI3558
S'wondpw'
p3541
sI3559
S'roses'
p3542
sI3560
S'positioned'
p3543
sI3561
S'ad'
p3544
sI3562
S'bronze'
p3545
sI3563
S'department'
p3546
sI3564
S'tanned'
p3547
sI3565
S'belt'
p3548
sI3566
S'starbucks'
p3549
sI3567
S'tarmac'
p3550
sI3568
S'airplanes'
p3551
sI3569
S'pilot'
p3552
sI3570
S'planes'
p3553
sI3571
S'engine'
p3554
sI3572
S'runway'
p3555
sI3573
S'baggage'
p3556
sI3574
S'painte'
p3557
sI3575
S"person's"
p3558
sI3576
S'shinning'
p3559
sI3577
S'shrub'
p3560
sI3578
S'weed'
p3561
sI3579
S'wispy'
p3562
sI3580
S'dying'
p3563
sI3581
S'scattered'
p3564
sI3582
S'collected'
p3565
sI3583
S'curling'
p3566
sI3584
S'buffalo'
p3567
sI3585
S'grazing'
p3568
sI3586
S'pallets'
p3569
sI3587
S'suasage'
p3570
sI3588
S'pig'
p3571
sI3589
S'carcass'
p3572
sI3590
S'scale'
p3573
sI3591
S'pigs'
p3574
sI3592
S'brige'
p3575
sI3593
S'pie'
p3576
sI3594
S'filling'
p3577
sI3595
S'thumb'
p3578
sI3596
S'curled'
p3579
sI3597
S'crumb'
p3580
sI3598
S'crust'
p3581
sI3599
S'domed'
p3582
sI3600
S'roofs'
p3583
sI3601
S'searching'
p3584
sI3602
S'palapa'
p3585
sI3603
S'hunting'
p3586
sI3604
S'parrot'
p3587
sI3605
S'webbed'
p3588
sI3606
S"bird's"
p3589
sI3607
S'reflected'
p3590
sI3608
S'seals'
p3591
sI3609
S'seaweed'
p3592
sI3610
S'whiskers'
p3593
sI3611
S'footprints'
p3594
sI3612
S'reptile'
p3595
sI3613
S'walrus'
p3596
sI3614
S'torso'
p3597
sI3615
S'shell'
p3598
sI3616
S'hoof'
p3599
sI3617
S'giraffe'
p3600
sI3618
S'outlined'
p3601
sI3619
S'topped'
p3602
sI3620
S'mass'
p3603
sI3621
S'slim'
p3604
sI3622
S'nails'
p3605
sI3623
S'cheetah'
p3606
sI3624
S'cheetahs'
p3607
sI3625
S'dash'
p3608
sI3626
S'rear-view'
p3609
sI3627
S'leopard'
p3610
sI3628
S'visor'
p3611
sI3629
S"bull's"
p3612
sI3630
S'wildebeest'
p3613
sI3631
S'arches'
p3614
sI3632
S'quiet'
p3615
sI3633
S'mile'
p3616
sI3634
S'dashes'
p3617
sI3635
S'handicap'
p3618
sI3636
S'grown'
p3619
sI3637
S'juniper'
p3620
sI3638
S'sheltering'
p3621
sI3639
S"tree's"
p3622
sI3640
S'paned'
p3623
sI3641
S'scar'
p3624
sI3642
S'harbor'
p3625
sI3643
S'buoys'
p3626
sI3644
S'strips'
p3627
sI3645
S'stories'
p3628
sI3646
S'shoelace'
p3629
sI3647
S'sock'
p3630
sI3648
S'homes'
p3631
sI3649
S'downspout'
p3632
sI3650
S'decker'
p3633
sI3651
S"bike's"
p3634
sI3652
S'curves'
p3635
sI3653
S'bordering'
p3636
sI3654
S'flume'
p3637
sI3655
S"girl's"
p3638
sI3656
S'sickles'
p3639
sI3657
S'piled'
p3640
sI3658
S'pickup'
p3641
sI3659
S'clay'
p3642
sI3660
S'thatched'
p3643
sI3661
S'overgrown'
p3644
sI3662
S'debris'
p3645
sI3663
S'intersecting'
p3646
sI3664
S'manhole'
p3647
sI3665
S'ducklings'
p3648
sI3666
S'runt'
p3649
sI3667
S'serving'
p3650
sI3668
S'seafood'
p3651
sI3669
S'tartar'
p3652
sI3670
S'fried'
p3653
sI3671
S'selection'
p3654
sI3672
S'ads'
p3655
sI3673
S'panes'
p3656
sI3674
S'r'
sI3675
S'used'
p3657
sI3676
S'pave'
p3658
sI3677
S'arch'
p3659
sI3678
S'stringer'
p3660
sI3679
S'fringes'
p3661
sI3680
S'decoration'
p3662
sI3681
S'strung'
p3663
sI3682
S'rounded'
p3664
sI3683
S'80on'
p3665
sI3684
S'puffy'
p3666
sI3685
S'symbol'
p3667
sI3686
S'capri'
p3668
sI3687
S'ornaments'
p3669
sI3688
S'9'
sI3689
S'featuring'
p3670
sI3690
S'foundation'
p3671
sI3691
S'diamond'
p3672
sI3692
S'less'
p3673
sI3693
S'plowed'
p3674
sI3694
S'cleared'
p3675
sI3695
S'care'
p3676
sI3696
S'completely'
p3677
sI3697
S'manaccan'
p3678
sI3698
S'entance'
p3679
sI3699
S'bracket'
p3680
sI3700
S'hatchback'
p3681
sI3701
S'canon'
p3682
sI3702
S'shipping'
p3683
sI3703
S'gaurd'
p3684
sI3704
S'plaque'
p3685
sI3705
S'wreath'
p3686
sI3706
S'flagpole'
p3687
sI3707
S'cannon'
p3688
sI3708
S'cranes'
p3689
sI3709
S'layers'
p3690
sI3710
S'curbed'
p3691
sI3711
S'percent'
p3692
sI3712
S'tallest'
p3693
sI3713
S'balck'
p3694
sI3714
S'dashed'
p3695
sI3715
S'anchored'
p3696
sI3716
S'yacht'
p3697
sI3717
S'mast'
p3698
sI3718
S'natch'
p3699
sI3719
S'docked'
p3700
sI3720
S'text'
p3701
sI3721
S'clearly'
p3702
sI3722
S'carryng'
p3703
sI3723
S'wiper'
p3704
sI3724
S'bulldozer'
p3705
sI3725
S'indicate'
p3706
sI3726
S'uniquely'
p3707
sI3727
S'gloomy'
p3708
sI3728
S'slight'
p3709
sI3729
S'hubcap'
p3710
sI3730
S'flop'
p3711
sI3731
S'lgiht'
p3712
sI3732
S'bumper'
p3713
sI3733
S'powerless'
p3714
sI3734
S'north'
p3715
sI3735
S'licence'
p3716
sI3736
S'courts'
p3717
sI3737
S'squirrels'
p3718
sI3738
S'knotty'
p3719
sI3739
S'convenience'
p3720
sI3740
S'document'
p3721
sI3741
S'mauve'
p3722
sI3742
S'soup'
p3723
sI3743
S'baked'
p3724
sI3744
S'pastry'
p3725
sI3745
S'kind'
p3726
sI3746
S'grouped'
p3727
sI3747
S'cotton'
p3728
sI3748
S'mexican'
p3729
sI3749
S'hatch'
p3730
sI3750
S'oncoming'
p3731
sI3751
S'lanes'
p3732
sI3752
S'stairwell'
p3733
sI3753
S'rite'
p3734
sI3754
S'poionting'
p3735
sI3755
S'puddles'
p3736
sI3756
S'nrespaper'
p3737
sI3757
S'vending'
p3738
sI3758
S'ubs'
p3739
sI3759
S'tailights'
p3740
sI3760
S'awing'
p3741
sI3761
S'ashtray'
p3742
sI3762
S"boy's"
p3743
sI3763
S'siver'
p3744
sI3764
S'petdal'
p3745
sI3765
S'tip'
p3746
sI3766
S'stapler'
p3747
sI3767
S'staple'
p3748
sI3768
S'dump'
p3749
sI3769
S'rusted'
p3750
sI3770
S'backhoe'
p3751
sI3771
S'cockpit'
p3752
sI3772
S'chunky'
p3753
sI3773
S'two-toned'
p3754
sI3774
S'rays'
p3755
sI3775
S'glaring'
p3756
sI3776
S'mitt'
p3757
sI3777
S'cartwheel'
p3758
sI3778
S'mattress'
p3759
sI3779
S'grain'
p3760
sI3780
S'calculator'
p3761
sI3781
S'biplane'
p3762
sI3782
S'propeller'
p3763
sI3783
S'cylinders'
p3764
sI3784
S'childs'
p3765
sI3785
S'womans'
p3766
sI3786
S'burgundy'
p3767
sI3787
S'hunched'
p3768
sI3788
S'peddle'
p3769
sI3789
S'pregnant'
p3770
sI3790
S'hippo'
p3771
sI3791
S'materials'
p3772
sI3792
S'panelled'
p3773
sI3793
S'cluster'
p3774
sI3794
S'storefronts'
p3775
sI3795
S'automobile'
p3776
sI3796
S'womens'
p3777
sI3797
S'newpaper'
p3778
sI3798
S'alcove'
p3779
sI3799
S'caterpillar'
p3780
sI3800
S'793d'
p3781
sI3801
S'violets'
p3782
sI3802
S'blind'
p3783
sI3803
S'bump'
p3784
sI3804
S'rims'
p3785
sI3805
S'torn'
p3786
sI3806
S'ac'
p3787
sI3807
S'mitten'
p3788
sI3808
S'noodles'
p3789
sI3809
S'router'
p3790
sI3810
S'v'
sI3811
S'lakes'
p3791
sI3812
S'gull'
p3792
sI3813
S'serene'
p3793
sI3814
S'fins'
p3794
sI3815
S'peacock'
p3795
sI3816
S'hedging'
p3796
sI3817
S'apartments'
p3797
sI3818
S'chimneys'
p3798
sI3819
S'roadside'
p3799
sI3820
S'flakes'
p3800
sI3821
S'reminiscent'
p3801
sI3822
S'theatre'
p3802
sI3823
S'dome'
p3803
sI3824
S'communicating'
p3804
sI3825
S'preventing'
p3805
sI3826
S'entering'
p3806
sI3827
S'planters'
p3807
sI3828
S'impressive'
p3808
sI3829
S'informational'
p3809
sI3830
S'visiting'
p3810
sI3831
S'attraction'
p3811
sI3832
S'highrise'
p3812
sI3833
S'hidden'
p3813
sI3834
S'darkness'
p3814
sI3835
S'multi-level'
p3815
sI3836
S'jeep-type'
p3816
sI3837
S'triangular'
p3817
sI3838
S'tabby'
p3818
sI3839
S"cat's"
p3819
sI3840
S'buoy'
p3820
sI3841
S'fender'
p3821
sI3842
S'elbow'
p3822
sI3843
S'leggings'
p3823
sI3844
S'bananas'
p3824
sI3845
S'mulchy'
p3825
sI3846
S'shady'
p3826
sI3847
S'markers'
p3827
sI3848
S'needles'
p3828
sI3849
S'archways'
p3829
sI3850
S'biege'
p3830
sI3851
S'daylight'
p3831
sI3852
S'sarf'
p3832
sI3853
S'banana'
p3833
sI3854
S'aircraft'
p3834
sI3855
S'fighter'
p3835
sI3856
S'spacesuit'
p3836
sI3857
S'mission'
p3837
sI3858
S'sholder'
p3838
sI3859
S'spacecraft'
p3839
sI3860
S'east'
p3840
sI3861
S'nasa'
p3841
sI3862
S"plane's"
p3842
sI3863
S'snow-covered'
p3843
sI3864
S'airlines'
p3844
sI3865
S'os'
p3845
sI3866
S'led'
p3846
sI3867
S'ticker'
p3847
sI3868
S'escalator'
p3848
sI3869
S'embedded'
p3849
sI3870
S'blazer'
p3850
sI3871
S'id'
p3851
sI3872
S'restroom'
p3852
sI3873
S'mover'
p3853
sI3874
S'capris'
p3854
sI3875
S'black-haired'
p3855
sI3876
S'suitcase'
p3856
sI3877
S'tint'
p3857
sI3878
S'employee'
p3858
sI3879
S'alot'
p3859
sI3880
S'celing'
p3860
sI3881
S'plus'
p3861
sI3882
S'twelve'
p3862
sI3883
S'cartoon'
p3863
sI3884
S'casino'
p3864
sI3885
S'slots'
p3865
sI3886
S'inserting'
p3866
sI3887
S'slot'
p3867
sI3888
S'awide'
p3868
sI3889
S'contrasting'
p3869
sI3890
S'geometric'
p3870
sI3891
S'urn'
p3871
sI3892
S'whiskey'
p3872
sI3893
S'mantel'
p3873
sI3894
S'twig'
p3874
sI3895
S'aquarium'
p3875
sI3896
S'viewing'
p3876
sI3897
S'specks'
p3877
sI3898
S'indentations'
p3878
sI3899
S'amusements'
p3879
sI3900
S'forming'
p3880
sI3901
S'angles'
p3881
sI3902
S'ribs'
p3882
sI3903
S'striper'
p3883
sI3904
S'events'
p3884
sI3905
S'mowing'
p3885
sI3906
S'carriers'
p3886
sI3907
S'goatee'
p3887
sI3908
S'dream'
p3888
sI3909
S'peice'
p3889
sI3910
S'hatbox'
p3890
sI3911
S'packet'
p3891
sI3912
S'valance'
p3892
sI3913
S'downward'
p3893
sI3914
S'brushes'
p3894
sI3915
S'tubes'
p3895
sI3916
S'canvases'
p3896
sI3917
S'modern'
p3897
sI3918
S'profile'
p3898
sI3919
S'wrapping'
p3899
sI3920
S'present'
p3900
sI3921
S'presents'
p3901
sI3922
S'sketching'
p3902
sI3923
S'collared'
p3903
sI3924
S'pinned'
p3904
sI3925
S'charcoal'
p3905
sI3926
S'student'
p3906
sI3927
S'terrace'
p3907
sI3928
S'chimmeney'
p3908
sI3929
S'podium'
p3909
sI3930
S'amp'
p3910
sI3931
S'supports'
p3911
sI3932
S'destruction'
p3912
sI3933
S'excavation'
p3913
sI3934
S'audi'
p3914
sI3935
S'angled'
p3915
sI3936
S'varying-size'
p3916
sI3937
S'buds'
p3917
sI3938
S'soil'
p3918
sI3939
S'composed'
p3919
sI3940
S'houseboat'
p3920
sI3941
S'conveyor'
p3921
sI3942
S'flights'
p3922
sI3943
S'refrigerated'
p3923
sI3944
S'desserts'
p3924
sI3945
S'price'
p3925
sI3946
S'tarts'
p3926
sI3947
S'frosting'
p3927
sI3948
S'tart'
p3928
sI3949
S'blueberries'
p3929
sI3950
S'nuts'
p3930
sI3951
S'puffs'
p3931
sI3952
S'bakery'
p3932
sI3953
S'pastries'
p3933
sI3954
S'turnover'
p3934
sI3955
S'croissant'
p3935
sI3956
S'buns'
p3936
sI3957
S'"cinnamon'
p3937
sI3958
S'displays'
p3938
sI3959
S't-shirts'
p3939
sI3960
S'variety'
p3940
sI3961
S'uncooked'
p3941
sI3962
S'dough'
p3942
sI3963
S'assorted'
p3943
sI3964
S'fixing'
p3944
sI3965
S'pallet'
p3945
sI3966
S'handling'
p3946
sI3967
S'ones'
p3947
sI3968
S"kid's"
p3948
sI3969
S'diners'
p3949
sI3970
S'sitted'
p3950
sI3971
S'foilage'
p3951
sI3972
S'shield'
p3952
sI3973
S'ceilings'
p3953
sI3974
S'baptism'
p3954
sI3975
S'priest'
p3955
sI3976
S'margarita'
p3956
sI3977
S'moose'
p3957
sI3978
S'sinks'
p3958
sI3979
S'smirnoff'
p3959
sI3980
S'vodka'
p3960
sI3981
S'beef'
p3961
sI3982
S'eater'
p3962
sI3983
S'gin'
p3963
sI3984
S'assortment'
p3964
sI3985
S'top-shelf'
p3965
sI3986
S'flavored'
p3966
sI3987
S'vodkas'
p3967
sI3988
S'absolute'
p3968
sI3989
S'bodka'
p3969
sI3990
S'goose'
p3970
sI3991
S'scotch'
p3971
sI3992
S'twigs'
p3972
sI3993
S'champainge'
p3973
sI3994
S'terra'
p3974
sI3995
S'cotta'
p3975
sI3996
S'mill'
p3976
sI3997
S'slatted'
p3977
sI3998
S'slat'
p3978
sI3999
S'ina'
p3979
sI4000
S'cases'
p3980
sI4001
S'halfway'
p3981
sI4002
S'sheers'
p3982
sI4003
S'sconce'
p3983
sI4004
S'haging'
p3984
sI4005
S'flat-screen'
p3985
sI4006
S'twin'
p3986
sI4007
S'bedstand'
p3987
sI4008
S'arrangement'
p3988
sI4009
S'moored'
p3989
sI4010
S'autumnal'
p3990
sI4011
S'flattened'
p3991
sI4012
S'felt'
p3992
sI4013
S'portrait'
p3993
sI4014
S'jamb'
p3994
sI4015
S'caster'
p3995
sI4016
S'multi-colored'
p3996
sI4017
S'binding'
p3997
sI4018
S'spilling'
p3998
sI4019
S'armed'
p3999
sI4020
S'horizontally'
p4000
sI4021
S'illustrated'
p4001
sI4022
S'page'
p4002
sI4023
S'installed'
p4003
sI4024
S'hook'
p4004
sI4025
S'peg'
p4005
sI4026
S'burnt'
p4006
sI4027
S'mannequin'
p4007
sI4028
S'jewlery'
p4008
sI4029
S'slippers'
p4009
sI4030
S'date'
p4010
sI4031
S'year'
p4011
sI4032
S'moon'
p4012
sI4033
S'interior'
p4013
sI4034
S'holes'
p4014
sI4035
S'return'
p4015
sI4036
S"catcher's"
p4016
sI4037
S'numer'
p4017
sI4038
S'chunks'
p4018
sI4039
S'pegs'
p4019
sI4040
S'lollipops'
p4020
sI4041
S'gift'
p4021
sI4042
S'baskets'
p4022
sI4043
S'gum'
p4023
sI4044
S'rolled-up'
p4024
sI4045
S'pin'
p4025
sI4046
S'classroom'
p4026
sI4047
S'hexagonal'
p4027
sI4048
S'florescent'
p4028
sI4049
S'lime'
p4029
sI4050
S'use'
p4030
sI4051
S'platforms'
p4031
sI4052
S'garland'
p4032
sI4053
S'form'
p4033
sI4054
S'grooves'
p4034
sI4055
S'dividers'
p4035
sI4056
S'cubicles'
p4036
sI4057
S'mix'
p4037
sI4058
S'vitamin'
p4038
sI4059
S'clerk'
p4039
sI4060
S'menus'
p4040
sI4061
S'beans'
p4041
sI4062
S'labeled'
p4042
sI4063
S'dental'
p4043
sI4064
S'patient'
p4044
sI4065
S'spit'
p4045
sI4066
S'reclined'
p4046
sI4067
S'windown'
p4047
sI4068
S'bustier'
p4048
sI4069
S'scrubs'
p4049
sI4070
S'persons'
p4050
sI4071
S'tomatoes'
p4051
sI4072
S'cooler'
p4052
sI4073
S'cherry'
p4053
sI4074
S'material'
p4054
sI4075
S'slouching'
p4055
sI4076
S'leafed'
p4056
sI4077
S'stuff'
p4057
sI4078
S'investigating'
p4058
sI4079
S'dials'
p4059
sI4080
S'electronics'
p4060
sI4081
S'arranging'
p4061
sI4082
S'lily'
p4062
sI4083
S'gerber'
p4063
sI4084
S'daisy'
p4064
sI4085
S'sandwiches'
p4065
sI4086
S'symbols'
p4066
sI4087
S'bring'
p4067
sI4088
S'any'
p4068
sI4089
S'slash'
p4069
sI4090
S'cruved'
p4070
sI4091
S'curio'
p4071
sI4092
S'tin'
p4072
sI4093
S'ping'
p4073
sI4094
S'pong'
p4074
sI4095
S'mechanic'
p4075
sI4096
S'wal'
p4076
sI4097
S'cleaner'
p4077
sI4098
S'toolbox'
p4078
sI4099
S'loose'
p4079
sI4100
S'batteries'
p4080
sI4101
S'salon'
p4081
sI4102
S'visa'
p4082
sI4103
S'cash'
p4083
sI4104
S'register'
p4084
sI4105
S'leaved'
p4085
sI4106
S'char'
p4086
sI4107
S'mirrors'
p4087
sI4108
S'bale'
p4088
sI4109
S'bales'
p4089
sI4110
S'dstance'
p4090
sI4111
S'smallest'
p4091
sI4112
S'hecopab'
p4092
sI4113
S'doctor'
p4093
sI4114
S'diagram'
p4094
sI4115
S'spa'
p4095
sI4116
S'cascade'
p4096
sI4117
S'rippled'
p4097
sI4118
S'lifejacket'
p4098
sI4119
S'juts'
p4099
sI4120
S'-rock'
p4100
sI4121
S'prints'
p4101
sI4122
S'slab'
p4102
sI4123
S'globular'
p4103
sI4124
S'jail'
p4104
sI4125
S'cd/radio'
p4105
sI4126
S'ruler'
p4106
sI4127
S'cubies'
p4107
sI4128
S'organizer'
p4108
sI4129
S"children's"
p4109
sI4130
S'car/train'
p4110
sI4131
S'broccoli'
p4111
sI4132
S'whale'
p4112
sI4133
S'dollhouse'
p4113
sI4134
S'valence'
p4114
sI4135
S'venting'
p4115
sI4136
S'counters'
p4116
sI4137
S'exstinguisher'
p4117
sI4138
S'extinguisher'
p4118
sI4139
S'cereals'
p4119
sI4140
S'freezer'
p4120
sI4141
S'combo'
p4121
sI4142
S'foodstuffs'
p4122
sI4143
S'loaf'
p4123
sI4144
S'mixes'
p4124
sI4145
S'burner'
p4125
sI4146
S'coils'
p4126
sI4147
S'tap'
p4127
sI4148
S'plastered'
p4128
sI4149
S'papered'
p4129
sI4150
S'oen'
p4130
sI4151
S'parrots'
p4131
sI4152
S'moisturizer'
p4132
sI4153
S'parakeet'
p4133
sI4154
S'butcher'
p4134
sI4155
S'placemat'
p4135
sI4156
S'cannister'
p4136
sI4157
S'flasks'
p4137
sI4158
S'nectarine'
p4138
sI4159
S'cascading'
p4139
sI4160
S'vine'
p4140
sI4161
S'damaged'
p4141
sI4162
S'medicine'
p4142
sI4163
S'magenta'
p4143
sI4164
S'largest'
p4144
sI4165
S'dryers'
p4145
sI4166
S'wash'
p4146
sI4167
S'coin'
p4147
sI4168
S'cruise'
p4148
sI4169
S'verical'
p4149
sI4170
S'switches'
p4150
sI4171
S'cutains'
p4151
sI4172
S'stance'
p4152
sI4173
S'assembled'
p4153
sI4174
S'dinosaur'
p4154
sI4175
S'bones'
p4155
sI4176
S'support'
p4156
sI4177
S'museums'
p4157
sI4178
S'upstairs'
p4158
sI4179
S'dinosaurs'
p4159
sI4180
S"baby's"
p4160
sI4181
S'nursery'
p4161
sI4182
S'valances'
p4162
sI4183
S'lens'
p4163
sI4184
S'ventilator'
p4164
sI4185
S'gurnee'
p4165
sI4186
S'cardigan'
p4166
sI4187
S'vegtables'
p4167
sI4188
S'stools'
p4168
sI4189
S'bolt'
p4169
sI4190
S'pantry'
p4170
sI4191
S'stocked'
p4171
sI4192
S'waterfront'
p4172
sI4193
S'floodlights'
p4173
sI4194
S'friendly'
p4174
sI4195
S'russian'
p4175
sI4196
S'champaign'
p4176
sI4197
S'backdrop'
p4177
sI4198
S'rig'
p4178
sI4199
S'backgrop'
p4179
sI4200
S'flowering'
p4180
sI4201
S'tuft'
p4181
sI4202
S'tusk'
p4182
sI4203
S'dye'
p4183
sI4204
S'sandbox'
p4184
sI4205
S'washer'
p4185
sI4206
S'situated'
p4186
sI4207
S'padlock'
p4187
sI4208
S'laces'
p4188
sI4209
S'styled'
p4189
sI4210
S'shoebox'
p4190
sI4211
S'racketball'
p4191
sI4212
S'racquetball'
p4192
sI4213
S'tilted'
p4193
sI4214
S'bark'
p4194
sI4215
S'smimsuit'
p4195
sI4216
S'lifesaver'
p4196
sI4217
S'recliners'
p4197
sI4218
S'comfortable'
p4198
sI4219
S'temple'
p4199
sI4220
S'had'
p4200
sI4221
S'elegant'
p4201
sI4222
S'letting'
p4202
sI4223
S'throne'
p4203
sI4224
S'sidwalk'
p4204
sI4225
S'toll'
p4205
sI4226
S'stain'
p4206
sI4227
S'turtle'
p4207
sI4228
S'princess'
p4208
sI4229
S'disney'
p4209
sI4230
S'pepsi'
p4210
sI4231
S'frongt'
p4211
sI4232
S'writting'
p4212
sI4233
S'polar'
p4213
sI4234
S'trailer'
p4214
sI4235
S'truckstop'
p4215
sI4236
S'secure'
p4216
sI4237
S'hour'
p4217
sI4238
S'draped'
p4218
sI4239
S'gold-framed'
p4219
sI4240
S'squat'
p4220
sI4241
S'crystal'
p4221
sI4242
S'decor'
p4222
sI4243
S'brushing'
p4223
sI4244
S'hangers'
p4224
sI4245
S'combing'
p4225
sI4246
S'recreational'
p4226
sI4247
S'receptacle'
p4227
sI4248
S'broown'
p4228
sI4249
S'factory'
p4229
sI4250
S'dual'
p4230
sI4251
S'firework'
p4231
sI4252
S'racks'
p4232
sI4253
S'grime'
p4233
sI4254
S'shelve'
p4234
sI4255
S'vise'
p4235
sI4256
S'padlocked'
p4236
sI4257
S'scarred'
p4237
sI4258
S'linoleum'
p4238
sI4259
S'lathe'
p4239
sI4260
S'workshop'
p4240
sI4261
S'plaster'
p4241
sI4262
S'workbench'
p4242
sI4263
S'saw'
p4243
sI4264
S'mammal'
p4244
sI4265
S'orangutan'
p4245
sI4266
S'closest'
p4246
sI4267
S'nature'
p4247
sI4268
S'here'
p4248
sI4269
S'operson'
p4249
sI4270
S'forrest'
p4250
sI4271
S'english'
p4251
sI4272
S'loosely'
p4252
sI4273
S'saddled'
p4253
sI4274
S'bridle'
p4254
sI4275
S'fax'
p4255
sI4276
S'molded'
p4256
sI4277
S'resin'
p4257
sI4278
S'pigeon'
p4258
sI4279
S'messenger'
p4259
sI4280
S'stern'
p4260
sI4281
S'gauzy'
p4261
sI4282
S'bamboo'
p4262
sI4283
S'flatscreen'
p4263
sI4284
S'tucked'
p4264
sI4285
S'pocketbook'
p4265
sI4286
S'sidebar'
p4266
sI4287
S'picasso'
p4267
sI4288
S'fronds'
p4268
sI4289
S'skillet'
p4269
sI4290
S'portable'
p4270
sI4291
S'voile'
p4271
sI4292
S'tannish'
p4272
sI4293
S'eleven'
p4273
sI4294
S'eifel'
p4274
sI4295
S'spaghetti'
p4275
sI4296
S'castle'
p4276
sI4297
S'tooth'
p4277
sI4298
S'silvery'
p4278
sI4299
S'perosn'
p4279
sI4300
S'stariway'
p4280
sI4301
S'spiraling'
p4281
sI4302
S'scroll'
p4282
sI4303
S'rimmed'
p4283
sI4304
S'crumbles'
p4284
sI4305
S'leftover'
p4285
sI4306
S'stains'
p4286
sI4307
S'fluted'
p4287
sI4308
S'theright'
p4288
sI4309
S'bean'
p4289
sI4310
S'coins'
p4290
sI4311
S'plated'
p4291
sI4312
S'fine'
p4292
sI4313
S'features'
p4293
sI4314
S'kinds'
p4294
sI4315
S'starched'
p4295
sI4316
S'linen'
p4296
sI4317
S'goblet'
p4297
sI4318
S'fry'
p4298
sI4319
S'ketchup'
p4299
sI4320
S'dressing'
p4300
sI4321
S'ranch'
p4301
sI4322
S'toast'
p4302
sI4323
S'needle'
p4303
sI4324
S'pills'
p4304
sI4325
S'brownie'
p4305
sI4326
S'breakfast'
p4306
sI4327
S'modeling'
p4307
sI4328
S'replica'
p4308
sI4329
S'dessert'
p4309
sI4330
S'frothy'
p4310
sI4331
S'cocoa'
p4311
sI4332
S'sprinkled'
p4312
sI4333
S'teaspoon'
p4313
sI4334
S'chopstick'
p4314
sI4335
S'setup'
p4315
sI4336
S'dinning'
p4316
sI4337
S'bagged'
p4317
sI4338
S'wipe'
p4318
sI4339
S'vegtable'
p4319
sI4340
S'carrots'
p4320
sI4341
S'accents'
p4321
sI4342
S'slices'
p4322
sI4343
S'heel'
p4323
sI4344
S'stems'
p4324
sI4345
S'catalog'
p4325
sI4346
S'upside-down'
p4326
sI4347
S'lemonade'
p4327
sI4348
S'taupe'
p4328
sI4349
S'molding'
p4329
sI4350
S'nicely'
p4330
sI4351
S'queen'
p4331
sI4352
S'tongs'
p4332
sI4353
S'decorations'
p4333
sI4354
S'couches'
p4334
sI4355
S'ashes'
p4335
sI4356
S'veneer'
p4336
sI4357
S'sculptor'
p4337
sI4358
S'brownish'
p4338
sI4359
S'rosary'
p4339
sI4360
S'wrap/scarf'
p4340
sI4361
S'pope'
p4341
sI4362
S'john'
p4342
sI4363
S'paui'
p4343
sI4364
S'ii'
p4344
sI4365
S'specimen'
p4345
sI4366
S'wadded'
p4346
sI4367
S'inflated'
p4347
sI4368
S'bandana'
p4348
sI4369
S'stetson'
p4349
sI4370
S'chugging'
p4350
sI4371
S'funnel'
p4351
sI4372
S'fingernail'
p4352
sI4373
S'hilltop'
p4353
sI4374
S'desolate'
p4354
sI4375
S'flowerpot'
p4355
sI4376
S'multi-story'
p4356
sI4377
S'2nd'
p4357
sI4378
S'signpost'
p4358
sI4379
S'novelty'
p4359
sI4380
S'denture'
p4360
sI4381
S'folders'
p4361
sI4382
S'nobody'
p4362
sI4383
S'maps'
p4363
sI4384
S'sharpie'
p4364
sI4385
S'boxy'
p4365
sI4386
S'graphic'
p4366
sI4387
S'twisted'
p4367
sI4388
S'moniters'
p4368
sI4389
S'braces'
p4369
sI4390
S'oneway'
p4370
sI4391
S'lottery'
p4371
sI4392
S'ties'
p4372
sI4393
S'l'
sI4394
S'keno'
p4373
sI4395
S'marbled'
p4374
sI4396
S'brow'
p4375
sI4397
S'conditioner'
p4376
sI4398
S'sunshine'
p4377
sI4399
S'4door'
p4378
sI4400
S'2door'
p4379
sI4401
S'cambridge'
p4380
sI4402
S'trust'
p4381
sI4403
S'company'
p4382
sI4404
S'windos'
p4383
sI4405
S'gazebos'
p4384
sI4406
S'soffet'
p4385
sI4407
S'sparse'
p4386
sI4408
S'fray'
p4387
sI4409
S'packages'
p4388
sI4410
S'tarmacked'
p4389
sI4411
S'storied'
p4390
sI4412
S'central'
p4391
sI4413
S'honda'
p4392
sI4414
S'vines'
p4393
sI4415
S'instructions'
p4394
sI4416
S'metalic'
p4395
sI4417
S'barrels'
p4396
sI4418
S'detail'
p4397
sI4419
S'twenty'
p4398
sI4420
S'possibly'
p4399
sI4421
S'hub'
p4400
sI4422
S'scaffolds'
p4401
sI4423
S'dodge'
p4402
sI4424
S'side-view'
p4403
sI4425
S'vin'
p4404
sI4426
S'sideview'
p4405
sI4427
S'cieling'
p4406
sI4428
S'personal'
p4407
sI4429
S'k'
sI4430
S'plywood'
p4408
sI4431
S'neighboring'
p4409
sI4432
S'iridescent'
p4410
sI4433
S'unmelted'
p4411
sI4434
S'jetta'
p4412
sI4435
S'revolving'
p4413
sI4436
S'cemented'
p4414
sI4437
S'grounds'
p4415
sI4438
S'repairs'
p4416
sI4439
S'levi'
p4417
sI4440
S'hammer'
p4418
sI4441
S'no-climb'
p4419
sI4442
S'carpenter'
p4420
sI4443
S'basement'
p4421
sI4444
S'turck'
p4422
sI4445
S'doorhandle'
p4423
sI4446
S'sox'
p4424
sI4447
S'grates'
p4425
sI4448
S'leaned'
p4426
sI4449
S'nozzle'
p4427
sI4450
S'pictogram'
p4428
sI4451
S'backpark'
p4429
sI4452
S'yound'
p4430
sI4453
S'diplaying'
p4431
sI4454
S'ames'
p4432
sI4455
S'mid-block'
p4433
sI4456
S'lawnmower'
p4434
sI4457
S'semi'
p4435
sI4458
S'bick'
p4436
sI4459
S'manholes'
p4437
sI4460
S'bluish'
p4438
sI4461
S'mousemat'
p4439
sI4462
S'processor'
p4440
sI4463
S"pc's"
p4441
sI4464
S'blank'
p4442
sI4465
S'amount'
p4443
sI4466
S'packaged'
p4444
sI4467
S'simple'
p4445
sI4468
S'phones'
p4446
sI4469
S'pens'
p4447
sI4470
S'caddy'
p4448
sI4471
S'adjustment'
p4449
sI4472
S'handel'
p4450
sI4473
S'call'
p4451
sI4474
S'happens'
p4452
sI4475
S'mo-ped'
p4453
sI4476
S'exterior'
p4454
sI4477
S'probably'
p4455
sI4478
S'marginal'
p4456
sI4479
S'bracketed'
p4457
sI4480
S'overhanging'
p4458
sI4481
S'dappling'
p4459
sI4482
S'lovely'
p4460
sI4483
S'obstructed'
p4461
sI4484
S'ridges'
p4462
sI4485
S'spoke'
p4463
sI4486
S'squares'
p4464
sI4487
S'transformer'
p4465
sI4488
S'glued'
p4466
sI4489
S'bedframe'
p4467
sI4490
S'houseplant'
p4468
sI4491
S'dots'
p4469
sI4492
S'landline'
p4470
sI4493
S'notebooks'
p4471
sI4494
S'audio'
p4472
sI4495
S'powered'
p4473
sI4496
S'gilt'
p4474
sI4497
S'wallet'
p4475
sI4498
S'trailing'
p4476
sI4499
S'ostentatious'
p4477
sI4500
S'stoned'
p4478
sI4501
S'vane'
p4479
sI4502
S'trolley'
p4480
sI4503
S'convertable'
p4481
sI4504
S'loading'
p4482
sI4505
S'msnhole'
p4483
sI4506
S'frosted'
p4484
sI4507
S'pinstripe'
p4485
sI4508
S'opf'
p4486
sI4509
S'skyskrper'
p4487
sI4510
S'asphaplt'
p4488
sI4511
S'planting'
p4489
sI4512
S'usps'
p4490
sI4513
S'svu'
p4491
sI4514
S'taillights'
p4492
sI4515
S'streetlamp'
p4493
sI4516
S'drivers'
p4494
sI4517
S'braking'
p4495
sI4518
S'corroded'
p4496
sI4519
S'conversion'
p4497
sI4520
S'capital'
p4498
sI4521
S'two-paned'
p4499
sI4522
S'centered'
p4500
sI4523
S'obscured'
p4501
sI4524
S'gap'
p4502
sI4525
S'conrete'
p4503
sI4526
S'seperate'
p4504
sI4527
S'canopies'
p4505
sI4528
S"bertucci's"
p4506
sI4529
S'crinkled'
p4507
sI4530
S'crisp'
p4508
sI4531
S'medium-sized'
p4509
sI4532
S'casing'
p4510
sI4533
S'mean'
p4511
sI4534
S'indent'
p4512
sI4535
S'anthony'
p4513
sI4536
S'mailing'
p4514
sI4537
S'larry'
p4515
sI4538
S'barcode'
p4516
sI4539
S"o'donnell"
p4517
sI4540
S'gestoria'
p4518
sI4541
S'abogados'
p4519
sI4542
S'peering'
p4520
sI4543
S'guardrails'
p4521
sI4544
S'metro'
p4522
sI4545
S'warning'
p4523
sI4546
S'eraser'
p4524
sI4547
S'chords'
p4525
sI4548
S'cordless'
p4526
sI4549
S'tangled'
p4527
sI4550
S'coca-cola'
p4528
sI4551
S'chain-link'
p4529
sI4552
S'wlaking'
p4530
sI4553
S'vacant'
p4531
sI4554
S'octogon'
p4532
sI4555
S'ford'
p4533
sI4556
S'close-up'
p4534
sI4557
S'dominating'
p4535
sI4558
S'washed-out'
p4536
sI4559
S'screw-top'
p4537
sI4560
S'adhering'
p4538
sI4561
S'd'
sI4562
S'"no'
p4539
sI4563
S'signaling'
p4540
sI4564
S'plow'
p4541
sI4565
S'attachment'
p4542
sI4566
S'picket'
p4543
sI4567
S'f'
sI4568
S'silvrer'
p4544
sI4569
S'consrtuction'
p4545
sI4570
S'dividing'
p4546
sI4571
S'properties'
p4547
sI4572
S'spaces'
p4548
sI4573
S'wound'
p4549
sI4574
S'binder'
p4550
sI4575
S'mathematical'
p4551
sI4576
S'interfaces'
p4552
sI4577
S'cabenet'
p4553
sI4578
S'typical'
p4554
sI4579
S'pod'
p4555
sI4580
S'desl'
p4556
sI4581
S'rom'
p4557
sI4582
S'2002'
p4558
sI4583
S'connect'
p4559
sI4584
S'recycling'
p4560
sI4585
S'faux'
p4561
sI4586
S'dell-brand'
p4562
sI4587
S'intel'
p4563
sI4588
S'posted'
p4564
sI4589
S'siting'
p4565
sI4590
S'greens'
p4566
sI4591
S'screw'
p4567
sI4592
S'tulip'
p4568
sI4593
S'spacebar'
p4569
sI4594
S'wad'
p4570
sI4595
S'whtie'
p4571
sI4596
S'espresso'
p4572
sI4597
S'processer'
p4573
sI4598
S'kit'
p4574
sI4599
S'pump'
p4575
sI4600
S'cabines'
p4576
sI4601
S'polaroid'
p4577
sI4602
S'binders'
p4578
sI4603
S'birdhouse'
p4579
sI4604
S'sittin'
p4580
sI4605
S'penny'
p4581
sI4606
S'bicycling'
p4582
sI4607
S'main'
p4583
sI4608
S'thewall'
p4584
sI4609
S'bulletins'
p4585
sI4610
S'pasted'
p4586
sI4611
S'shelving'
p4587
sI4612
S'brackets'
p4588
sI4613
S'greyish'
p4589
sI4614
S'off-white'
p4590
sI4615
S'coral'
p4591
sI4616
S'rainy'
p4592
sI4617
S'twill'
p4593
sI4618
S'shredder'
p4594
sI4619
S'web'
p4595
sI4620
S'cam'
p4596
sI4621
S'calender'
p4597
sI4622
S'faced'
p4598
sI4623
S'pinboard'
p4599
sI4624
S'escapes'
p4600
sI4625
S'formula'
p4601
sI4626
S'change'
p4602
sI4627
S'widow'
p4603
sI4628
S'protect'
p4604
sI4629
S'gutter'
p4605
sI4630
S'petition'
p4606
sI4631
S'unbrellas'
p4607
sI4632
S'ironwork'
p4608
sI4633
S'railingon'
p4609
sI4634
S'gargantua'
p4610
sI4635
S"d'albe"
p4611
sI4636
S'crests'
p4612
sI4637
S'growth'
p4613
sI4638
S'protrudes'
p4614
sI4639
S'side-by-side'
p4615
sI4640
S'interlocked'
p4616
sI4641
S'jury'
p4617
sI4642
S'eyelgasses'
p4618
sI4643
S'khakis'
p4619
sI4644
S'short-nap'
p4620
sI4645
S'presentation'
p4621
sI4646
S'sconces'
p4622
sI4647
S'wrinkled'
p4623
sI4648
S'rectangles'
p4624
sI4649
S'middle-aged'
p4625
sI4650
S'justine'
p4626
sI4651
S'sleek'
p4627
sI4652
S'kickstands'
p4628
sI4653
S'mesh'
p4629
sI4654
S'fenceing'
p4630
sI4655
S'enduro'
p4631
sI4656
S'traffc'
p4632
sI4657
S'businesses'
p4633
sI4658
S'plat'
p4634
sI4659
S'fences'
p4635
sI4660
S'bins'
p4636
sI4661
S'recyclable'
p4637
sI4662
S'cycle'
p4638
sI4663
S'sin'
p4639
sI4664
S'flagstone'
p4640
sI4665
S'infrastructure'
p4641
sI4666
S'30'
p4642
sI4667
S'limp'
p4643
sI4668
S'outskirts'
p4644
sI4669
S'steeples'
p4645
sI4670
S'height'
p4646
sI4671
S'spires'
p4647
sI4672
S'peaked'
p4648
sI4673
S'shrine'
p4649
sI4674
S'cylindrical'
p4650
sI4675
S'cubby'
p4651
sI4676
S'vases'
p4652
sI4677
S'surroung'
p4653
sI4678
S'troll'
p4654
sI4679
S'garment'
p4655
sI4680
S'barber'
p4656
sI4681
S'unreadble'
p4657
sI4682
S'cityscape'
p4658
sI4683
S'shores'
p4659
sI4684
S'holders'
p4660
sI4685
S'shuttles'
p4661
sI4686
S'windchime'
p4662
sI4687
S'doorbell'
p4663
sI4688
S'chimes'
p4664
sI4689
S'last'
p4665
sI4690
S'burgandy'
p4666
sI4691
S'expedition'
p4667
sI4692
S'attatched'
p4668
sI4693
S'downstairs'
p4669
sI4694
S'cooper'
p4670
sI4695
S'mailboxes'
p4671
sI4696
S'hong'
p4672
sI4697
S'kong'
p4673
sI4698
S'chinses'
p4674
sI4699
S'dull'
p4675
sI4700
S'gauges'
p4676
sI4701
S'skyway'
p4677
sI4702
S'borders'
p4678
sI4703
S'brakelight'
p4679
sI4704
S'towing'
p4680
sI4705
S'townhouse'
p4681
sI4706
S'void'
p4682
sI4707
S'light-colored'
p4683
sI4708
S'levels'
p4684
sI4709
S'baggy'
p4685
sI4710
S'charecter'
p4686
sI4711
S'slacks'
p4687
sI4712
S'lifesaving'
p4688
sI4713
S'saving'
p4689
sI4714
S'closure'
p4690
sI4715
S'character'
p4691
sI4716
S'directory'
p4692
sI4717
S'pines'
p4693
sI4718
S'vast'
p4694
sI4719
S'coast'
p4695
sI4720
S'stamp'
p4696
sI4721
S'thru'
p4697
sI4722
S'channel'
p4698
sI4723
S'crammed'
p4699
sI4724
S'bicke'
p4700
sI4725
S'helm'
p4701
sI4726
S'furled'
p4702
sI4727
S'boom'
p4703
sI4728
S'jib'
p4704
sI4729
S'created'
p4705
sI4730
S'jetty'
p4706
sI4731
S'redbox'
p4707
sI4732
S'caucasian'
p4708
sI4733
S'digits'
p4709
sI4734
S'grey-blue'
p4710
sI4735
S'minimal'
p4711
sI4736
S'benath'
p4712
sI4737
S'drop-off'
p4713
sI4738
S'cnn'
p4714
sI4739
S'foldable'
p4715
sI4740
S'walkways'
p4716
sI4741
S'bridges'
p4717
sI4742
S'admiring'
p4718
sI4743
S'architecture'
p4719
sI4744
S'zone'
p4720
sI4745
S'aligned'
p4721
sI4746
S'separating'
p4722
sI4747
S'pilings'
p4723
sI4748
S'parkin'
p4724
sI4749
S'raod'
p4725
sI4750
S'guardrail'
p4726
sI4751
S'minibus'
p4727
sI4752
S'backboard'
p4728
sI4753
S'backetball'
p4729
sI4754
S'fireplaces'
p4730
sI4755
S'ways'
p4731
sI4756
S'holeman'
p4732
sI4757
S'branched'
p4733
sI4758
S'sections'
p4734
sI4759
S'indicating'
p4735
sI4760
S'reef'
p4736
sI4761
S'cove'
p4737
sI4762
S'hull'
p4738
sI4763
S'lighthouse'
p4739
sI4764
S'cactus'
p4740
sI4765
S'sidewalks'
p4741
sI4766
S'bedside'
p4742
sI4767
S'coverings'
p4743
sI4768
S'ruffle'
p4744
sI4769
S'angular'
p4745
sI4770
S'matress'
p4746
sI4771
S'mirrow'
p4747
sI4772
S'loveseat'
p4748
sI4773
S'creram'
p4749
sI4774
S'pleated'
p4750
sI4775
S'pleat'
p4751
sI4776
S'skirted'
p4752
sI4777
S'hump'
p4753
sI4778
S'receiver'
p4754
sI4779
S'lighs'
p4755
sI4780
S'brochure'
p4756
sI4781
S'endtable'
p4757
sI4782
S'chekered'
p4758
sI4783
S'mouthwash'
p4759
sI4784
S'booklet'
p4760
sI4785
S'conical'
p4761
sI4786
S'velveteen'
p4762
sI4787
S'sham'
p4763
sI4788
S'envelop'
p4764
sI4789
S'flap'
p4765
sI4790
S'blankets'
p4766
sI4791
S'checker'
p4767
sI4792
S'bl;ack'
p4768
sI4793
S'daybed'
p4769
sI4794
S'bidet'
p4770
sI4795
S'armoir'
p4771
sI4796
S'baseboards'
p4772
sI4797
S'terminal'
p4773
sI4798
S'spigot'
p4774
sI4799
S'quilted'
p4775
sI4800
S'bead'
p4776
sI4801
S'diamonds'
p4777
sI4802
S'shower-head'
p4778
sI4803
S'counter-top'
p4779
sI4804
S'texture'
p4780
sI4805
S'receipt'
p4781
sI4806
S'notifications'
p4782
sI4807
S'fibers'
p4783
sI4808
S'jumble'
p4784
sI4809
S'ontop'
p4785
sI4810
S'commode'
p4786
sI4811
S'darkly'
p4787
sI4812
S'duvet'
p4788
sI4813
S'spotlessly'
p4789
sI4814
S'centerpiece'
p4790
sI4815
S'octagon'
p4791
sI4816
S'skylights'
p4792
sI4817
S'railway'
p4793
sI4818
S'deadbolt'
p4794
sI4819
S'grasses'
p4795
sI4820
S'inner'
p4796
sI4821
S'compound'
p4797
sI4822
S'u-shaped'
p4798
sI4823
S'closing'
p4799
sI4824
S'wndow'
p4800
sI4825
S'whit'
p4801
sI4826
S'cleanly'
p4802
sI4827
S'drape'
p4803
sI4828
S'dvd'
p4804
sI4829
S'abstract'
p4805
sI4830
S'scratching'
p4806
sI4831
S'bannisters'
p4807
sI4832
S'offwhite'
p4808
sI4833
S'wallplate'
p4809
sI4834
S'basing'
p4810
sI4835
S'records'
p4811
sI4836
S'fashion'
p4812
sI4837
S'cruiseline'
p4813
sI4838
S'sprouting'
p4814
sI4839
S'straddle'
p4815
sI4840
S'plump'
p4816
sI4841
S'filters'
p4817
sI4842
S'rocker'
p4818
sI4843
S'hue'
p4819
sI4844
S'lightswitch'
p4820
sI4845
S'nook'
p4821
sI4846
S'detector'
p4822
sI4847
S'shingled'
p4823
sI4848
S'stereo'
p4824
sI4849
S'sloping'
p4825
sI4850
S'tangle'
p4826
sI4851
S'fronting'
p4827
sI4852
S'pillowcases'
p4828
sI4853
S'limbs'
p4829
sI4854
S'done'
p4830
sI4855
S'blacktop'
p4831
sI4856
S'fume'
p4832
sI4857
S'elctrical'
p4833
sI4858
S'brick-stacked'
p4834
sI4859
S'healthy'
p4835
sI4860
S'lively'
p4836
sI4861
S'exhuast'
p4837
sI4862
S'tanning'
p4838
sI4863
S'transparent'
p4839
sI4864
S'tong'
p4840
sI4865
S'spindle'
p4841
sI4866
S'bannister'
p4842
sI4867
S'dressers'
p4843
sI4868
S'three-prong'
p4844
sI4869
S'bundle'
p4845
sI4870
S'vinyl'
p4846
sI4871
S'ladles'
p4847
sI4872
S'exposing'
p4848
sI4873
S'residence'
p4849
sI4874
S'bendable'
p4850
sI4875
S'paperback'
p4851
sI4876
S'sidings'
p4852
sI4877
S'satin'
p4853
sI4878
S'blueish'
p4854
sI4879
S'e-meter'
p4855
sI4880
S'apole'
p4856
sI4881
S'commercial'
p4857
sI4882
S'matte'
p4858
sI4883
S'pedastle'
p4859
sI4884
S'hamper'
p4860
sI4885
S'onthe'
p4861
sI4886
S'dingy'
p4862
sI4887
S'nighstand'
p4863
sI4888
S'chandlier'
p4864
sI4889
S'etch-a-sketch'
p4865
sI4890
S'boardgames'
p4866
sI4891
S'onions'
p4867
sI4892
S'quiche'
p4868
sI4893
S'trio'
p4869
sI4894
S'unopened'
p4870
sI4895
S'baguette'
p4871
sI4896
S'keish'
p4872
sI4897
S'cookies'
p4873
sI4898
S'lattice'
p4874
sI4899
S'cupboard'
p4875
sI4900
S'commodious'
p4876
sI4901
S'browns'
p4877
sI4902
S'recess'
p4878
sI4903
S'scrub'
p4879
sI4904
S'bristles'
p4880
sI4905
S'stovetop'
p4881
sI4906
S'bristled'
p4882
sI4907
S'ovens'
p4883
sI4908
S'elegantly'
p4884
sI4909
S'furnished'
p4885
sI4910
S'easy-chair'
p4886
sI4911
S'footstool'
p4887
sI4912
S'undurtained'
p4888
sI4913
S'flffy'
p4889
sI4914
S'topping'
p4890
sI4915
S'brochures'
p4891
sI4916
S'inverted'
p4892
sI4917
S'saucers'
p4893
sI4918
S'properly'
p4894
sI4919
S'silk'
p4895
sI4920
S'japenese'
p4896
sI4921
S'grandfather'
p4897
sI4922
S'pencils'
p4898
sI4923
S'iced'
p4899
sI4924
S'bears'
p4900
sI4925
S'welcome'
p4901
sI4926
S'illustrations'
p4902
sI4927
S'paino'
p4903
sI4928
S'sugar'
p4904
sI4929
S'colander'
p4905
sI4930
S'intricated'
p4906
sI4931
S'cherries'
p4907
sI4932
S'workstation'
p4908
sI4933
S'herbs'
p4909
sI4934
S'cook'
p4910
sI4935
S'cookbook'
p4911
sI4936
S'built-in'
p4912
sI4937
S'tones'
p4913
sI4938
S'images'
p4914
sI4939
S'coomputer'
p4915
sI4940
S'clam'
p4916
sI4941
S'clams'
p4917
sI4942
S'chandalier'
p4918
sI4943
S'feature'
p4919
sI4944
S'portraits'
p4920
sI4945
S'organ'
p4921
sI4946
S'upsidedown'
p4922
sI4947
S'melted'
p4923
sI4948
S'wax'
p4924
sI4949
S'desklamp'
p4925
sI4950
S'scribbling'
p4926
sI4951
S'tube-light'
p4927
sI4952
S'angel'
p4928
sI4953
S'gondola'
p4929
sI4954
S'comb'
p4930
sI4955
S'feathered'
p4931
sI4956
S'beady'
p4932
sI4957
S'tnhe'
p4933
sI4958
S'widest'
p4934
sI4959
S'tubing'
p4935
sI4960
S'vans'
p4936
sI4961
S'culvert'
p4937
sI4962
S'spoiler'
p4938
sI4963
S'drop'
p4939
sI4964
S'brittle'
p4940
sI4965
S'2-way'
p4941
sI4966
S'frito'
p4942
sI4967
S'delievery'
p4943
sI4968
S'yellowstone'
p4944
sI4969
S'streamers'
p4945
sI4970
S'"one'
p4946
sI4971
S'fedex'
p4947
sI4972
S'cabs'
p4948
sI4973
S'stree'
p4949
sI4974
S'wares'
p4950
sI4975
S'transit'
p4951
sI4976
S'lening'
p4952
sI4977
S'blck'
p4953
sI4978
S'hexagons'
p4954
sI4979
S'tlc'
p4955
sI4980
S'promotional'
p4956
sI4981
S'verizon'
p4957
sI4982
S'trowsers'
p4958
sI4983
S'carring'
p4959
sI4984
S'readin'
p4960
sI4985
S'printing'
p4961
sI4986
S'champs'
p4962
sI4987
S'dhl'
p4963
sI4988
S'keeping'
p4964
sI4989
S'pant'
p4965
sI4990
S'mentioning'
p4966
sI4991
S'"bus'
p4967
sI4992
S'stret'
p4968
sI4993
S'ny'
p4969
sI4994
S'decal'
p4970
sI4995
S'besides'
p4971
sI4996
S'limosine'
p4972
sI4997
S'uncertain'
p4973
sI4998
S'least'
p4974
sI4999
S'multi-paned'
p4975
sI5000
S'retail'
p4976
sI5001
S'signboard'
p4977
sI5002
S"child's"
p4978
sI5003
S"don't"
p4979
sI5004
S'build-a-bear'
p4980
sI5005
S'redken'
p4981
sI5006
S'cathedral'
p4982
sI5007
S'curbside'
p4983
sI5008
S'rockefeller'
p4984
sI5009
S'republic'
p4985
sI5010
S'h&e'
p4986
sI5011
S'rounding'
p4987
sI5012
S'us'
p4988
sI5013
S'somewhat'
p4989
sI5014
S'damp'
p4990
sI5015
S'flan'
p4991
sI5016
S'blonde-haired'
p4992
sI5017
S'bluest'
p4993
sI5018
S'towne'
p4994
sI5019
S'tw'
p4995
sI5020
S'roads'
p4996
sI5021
S'usa'
p4997
sI5022
S'today'
p4998
sI5023
S'newstand'
p4999
sI5024
S'information'
p5000
sI5025
S'trump'
p5001
sI5026
S'wih'
p5002
sI5027
S'numerous'
p5003
sI5028
S'tour'
p5004
sI5029
S'travelling'
p5005
sI5030
S'mown'
p5006
sI5031
S'plague'
p5007
sI5032
S'sloped'
p5008
sI5033
S'carriages'
p5009
sI5034
S'lopsided'
p5010
sI5035
S'discolored'
p5011
sI5036
S'thicke'
p5012
sI5037
S'weaing'
p5013
sI5038
S'spiked'
p5014
sI5039
S'massive'
p5015
sI5040
S'continued'
p5016
sI5041
S'lanterns'
p5017
sI5042
S'replacement'
p5018
sI5043
S'avocados'
p5019
sI5044
S'canteloupes'
p5020
sI5045
S'booths'
p5021
sI5046
S'curbs'
p5022
sI5047
S'staircases'
p5023
sI5048
S'entrances'
p5024
sI5049
S'emergency'
p5025
sI5050
S'chained'
p5026
sI5051
S'fuchsia'
p5027
sI5052
S'leprechaun'
p5028
sI5053
S'utilizing'
p5029
sI5054
S'tar'
p5030
sI5055
S'adidas'
p5031
sI5056
S'madison'
p5032
sI5057
S'nathans'
p5033
sI5058
S'roy'
p5034
sI5059
S'rogers'
p5035
sI5060
S'amtrak'
p5036
sI5061
S'steam'
p5037
sI5062
S'rising'
p5038
sI5063
S'bad'
p5039
sI5064
S"macy's"
p5040
sI5065
S'crossbody'
p5041
sI5066
S'brassiere'
p5042
sI5067
S'stopping'
p5043
sI5068
S'postal'
p5044
sI5069
S'm'
sI5070
S'million'
p5045
sI5071
S'poker'
p5046
sI5072
S'crosssing'
p5047
sI5073
S'downtown'
p5048
sI5074
S"planter's"
p5049
sI5075
S'pharmacy'
p5050
sI5076
S'girder'
p5051
sI5077
S'bulding'
p5052
sI5078
S'satelite'
p5053
sI5079
S'hoarding'
p5054
sI5080
S'tilting'
p5055
sI5081
S'erosion'
p5056
sI5082
S'skyscaper'
p5057
sI5083
S'stabilizer'
p5058
sI5084
S'chartreuse'
p5059
sI5085
S'abandoned'
p5060
sI5086
S'clump'
p5061
sI5087
S'sheraton'
p5062
sI5088
S'barked'
p5063
sI5089
S'mountaain'
p5064
sI5090
S'unpaved'
p5065
sI5091
S'prickly'
p5066
sI5092
S'discoloration'
p5067
sI5093
S'streak'
p5068
sI5094
S'striated'
p5069
sI5095
S'trickles'
p5070
sI5096
S'layer'
p5071
sI5097
S'surround'
p5072
sI5098
S'stucco'
p5073
sI5099
S'terracotta'
p5074
sI5100
S'pounding'
p5075
sI5101
S'cresting'
p5076
sI5102
S'smoggy'
p5077
sI5103
S'rises'
p5078
sI5104
S'san'
p5079
sI5105
S'francisco'
p5080
sI5106
S'shine'
p5081
sI5107
S'begin'
p5082
sI5108
S'shadowy'
p5083
sI5109
S'sparsely'
p5084
sI5110
S'peninsula'
p5085
sI5111
S'marine'
p5086
sI5112
S'muggy'
p5087
sI5113
S'stormy'
p5088
sI5114
S'farthest'
p5089
sI5115
S'evergreens'
p5090
sI5116
S'hitch'
p5091
sI5117
S'meadows'
p5092
sI5118
S'roaming'
p5093
sI5119
S'bison'
p5094
s.