(dp1
S''
I2540
sVbagpipe
p2
I1920
sVfrolics
p3
I642
sVhats
p4
I1921
sVyellow
p5
I1
sS'sleek'
p6
I4651
sVfour
p7
I2
sVprotest
p8
I1262
sVwoods
p9
I3
sVasian
p10
I1263
sS'vise'
p11
I4255
sVrailing
p12
I8
sS'assembled'
p13
I4173
sVmarching
p14
I5
sS'trolley'
p15
I4502
sVwhose
p16
I1264
sVfeeding
p17
I1923
sVpatches
p18
I1924
sS'breadbox'
p19
I2660
sVbottoms
p20
I1229
sVswan
p21
I1265
sS'sunlit'
p22
I3117
sS'presents'
p23
I3921
sS'shower-head'
p24
I4802
sVbike
p25
I644
sVwalks
p26
I326
sS'teaspoon'
p27
I4333
sVunder
p28
I1926
sS'recycle'
p29
I3181
sVteaching
p30
I1266
sVonstage
p31
I1267
sS'meadows'
p32
I5117
sVplaced
p33
I630
sS'swivel'
p34
I3281
sS'consrtuction'
p35
I4569
sS'mousemat'
p36
I4461
sS'fireplaces'
p37
I4754
sVblanket
p38
I645
sS'rise'
p39
I2630
sS'terminal'
p40
I4797
sS'dell'
p41
I3218
sS'vase'
p42
I2640
sS"driver's"
p43
I3011
sVraising
p44
I1530
sVcloseup
p45
I646
sVjack
p46
I1927
sVconfetti
p47
I1928
sVfur
p48
I1715
sS'hitch'
p49
I5116
sVfireplace
p50
I1929
sS'vast'
p51
I4718
sVwooded
p52
I6
sS'croissant'
p53
I3955
sVmotorcyclist
p54
I1931
sS'shoelace'
p55
I3646
sS'shlef'
p56
I3284
sS'straws'
p57
I3221
sVfrozen
p58
I2352
sS'convenience'
p59
I3739
sS'nursery'
p60
I4181
sS'greenish'
p61
I2914
sVwhist
p62
I648
sS'bordering'
p63
I3653
sS'glued'
p64
I4488
sVheading
p65
I1269
sVclothes
p66
I1270
sVenjoy
p67
I1932
sVchew
p68
I649
sS'parted'
p69
I2773
sVbicycle
p70
I1933
sS'daybed'
p71
I4793
sS'quilt'
p72
I3448
sVclover
p73
I823
sS'phones'
p74
I4468
sS'pin'
p75
I4045
sVhanging
p76
I4
sS'feathers'
p77
I3357
sVjapanese
p78
I1271
sS'frosted'
p79
I4506
sVtires
p80
I9
sVsurrounding
p81
I1934
sVrusty
p82
I10
sVstreet
p83
I1935
sVramp
p84
I588
sVhula
p85
I2134
sS'moniter'
p86
I2783
sVcolourful
p87
I1273
sS'planters'
p88
I3827
sVmachines
p89
I650
sVshining
p90
I1936
sVblue
p91
I1937
sVrope
p92
I1062
sS'verical'
p93
I4169
sVboogie
p94
I11
sVsooners
p95
I12
sVfingers
p96
I13
sS'hazy'
p97
I2644
sS'moniters'
p98
I4388
sS'lampshade'
p99
I2809
sVlights
p100
I1275
sVabove
p101
I652
sS'foodstuffs'
p102
I4142
sS'supplies'
p103
I3371
sVnet
p104
I1277
sVcarpet
p105
I951
sS'h&e'
p106
I5010
sS'disney'
p107
I4229
sS'counters'
p108
I4136
sVhelmets
p109
I1278
sVkicked
p110
I1938
sVscreams
p111
I1279
sVfestive
p112
I653
sVwakeboard
p113
I1280
sVmen
p114
I1281
sS'wrapping'
p115
I3919
sS'gold-framed'
p116
I4239
sVramps
p117
I1939
sS'bookcase'
p118
I3135
sVstudio
p119
I1940
sVkissing
p120
I453
sVpath
p121
I1941
sVstares
p122
I1942
sVcardboard
p123
I1282
sS'hosue'
p124
I3255
sVdry
p125
I1283
sVkids
p126
I15
sVdaughter
p127
I654
sS'tapes'
p128
I2758
sVluggage
p129
I1943
sVrests
p130
I1284
sVitems
p131
I655
sVelaborate
p132
I16
sS'usps'
p133
I4512
sS'completely'
p134
I3696
sS'museums'
p135
I4177
sVtv
p136
I341
sVjogging
p137
I1945
sVsmoke
p138
I656
sS'permit'
p139
I3144
sVgeese
p140
I1760
sVmilitary
p141
I17
sVrafting
p142
I1285
sS'leaved'
p143
I4105
sVpit
p144
I1911
sVgolden
p145
I19
sS'prints'
p146
I4121
sS'projection'
p147
I2786
sS'slices'
p148
I4342
sVstraw
p149
I1946
sS'elctrical'
p150
I4857
sS'off-white'
p151
I4614
sVstrap
p152
I1947
sVvisible
p153
I1948
sS'limosine'
p154
I4996
sS'cane'
p155
I3051
sVjackets
p156
I1286
sS'stern'
p157
I4280
sS'gazzette'
p158
I2610
sS'handlebar'
p159
I3351
sVlandscape
p160
I1287
sS'2-way'
p161
I4965
sS'plow'
p162
I4564
sVswings
p163
I1949
sS'reflected'
p164
I3607
sS'spoke'
p165
I4485
sVarmy
p166
I1288
sVsweater
p167
I657
sVwatering
p168
I1289
sVbarks
p169
I1290
sVarms
p170
I1291
sVsteering
p171
I551
sS'turquois'
p172
I2802
sVmusic
p173
I20
sVcalm
p174
I1293
sVbundled
p175
I658
sVtype
p176
I1294
sS'sticker'
p177
I2869
sVnative
p178
I1797
sS'galss'
p179
I3139
sVpaperwork
p180
I154
sS'posting'
p181
I3078
sVrelax
p182
I22
sS'binding'
p183
I4017
sS'autumnal'
p184
I4010
sVpierced
p185
I659
sVglass
p186
I23
sVwarm
p187
I1295
sS'etch-a-sketch'
p188
I4889
sVadult
p189
I1296
sS'indent'
p190
I4534
sVhole
p191
I24
sVhold
p192
I25
sS'outdated'
p193
I2961
sVblocking
p194
I661
sS'hola'
p195
I2858
sVshoot
p196
I1953
sVumbrellas
p197
I2456
sS'hutch'
p198
I3026
sS'word'
p199
I2857
sVroom
p200
I1297
sVtrots
p201
I1298
sS'setup'
p202
I4335
sVwork
p203
I662
sVreads
p204
I1066
sS'candlestick'
p205
I3474
sS'straddle'
p206
I4839
sS'movies'
p207
I3031
sS'pidgeon'
p208
I3524
sVsharp
p209
I1645
sS'mechanic'
p210
I4095
sS'shelve'
p211
I4254
sS'elbow'
p212
I3842
sS'crackers'
p213
I2995
sS'raod'
p214
I4749
sVcans
p215
I1387
sS'decorative'
p216
I2672
sS'vodka'
p217
I3980
sS'oner'
p218
I3380
sVsquirting
p219
I1301
sVwand
p220
I26
sVgive
p221
I1302
sVflorida
p222
I1158
sS'dividers'
p223
I4055
sVdolphin
p224
I1954
sVlaughs
p225
I1303
sS'backgrop'
p226
I4199
sS'facade'
p227
I2542
sS'fronting'
p228
I4851
sVcaution
p229
I27
sS'conditioner'
p230
I4397
sS'jumble'
p231
I4808
sS'organizer'
p232
I4128
sVrescue
p233
I1268
sVunseen
p234
I1228
sVend
p235
I1955
sS'dryer'
p236
I3462
sS'carriers'
p237
I3906
sS'octogon'
p238
I4554
sVtravel
p239
I28
sS'drying'
p240
I3468
sVslalom
p241
I1957
sS'feature'
p242
I4943
sVmachine
p243
I29
sVhow
p244
I30
sVhot
p245
I31
sVdrummer
p246
I1958
sS'exhuast'
p247
I4861
sS'benz'
p248
I3089
sVboats
p249
I665
sVgate
p250
I1959
sVhi
p251
I1246
sVchase
p252
I455
sVbeach
p253
I666
sS'guardrail'
p254
I4750
sVpizza
p255
I667
sS'bonsai'
p256
I3484
sS'baret'
p257
I3324
sS'poker'
p258
I5071
sVpokes
p259
I1960
sVboardwalk
p260
I2531
sS'briefcase'
p261
I3136
sVmouths
p262
I1961
sVmess
p263
I1962
sVladder
p264
I668
sVafter
p265
I669
sS'processing'
p266
I3270
sS'damaged'
p267
I4161
sVlab
p268
I670
sS'diagram'
p269
I4114
sS'dinosaurs'
p270
I4179
sVjumping
p271
I1963
sVlay
p272
I671
sVsparkler
p273
I1964
sS'natch'
p274
I3718
sS'dell-brand'
p275
I4586
sS'arch'
p276
I3677
sVparallel
p277
I1965
sVheaddress
p278
I673
sVcolorfully
p279
I32
sS'lifesaving'
p280
I4712
sVattempt
p281
I1307
sVthird
p282
I1308
sVsets
p283
I1879
sS'entel'
p284
I3113
sVspout
p285
I1966
sS'stain'
p286
I4226
sVdescends
p287
I1309
sVmotorbikes
p288
I553
sS'cigarettes'
p289
I3505
sS'backetball'
p290
I4753
sVgreen
p291
I674
sVjungle
p292
I1968
sS'rooftop'
p293
I3171
sVambulance
p294
I675
sS'leggings'
p295
I3843
sVathletes
p296
I1310
sS'wing'
p297
I3045
sVwind
p298
I33
sVwine
p299
I34
sS'salon'
p300
I4101
sVoffice
p301
I676
sVdeck
p302
I1311
sS'polaroid'
p303
I4601
sVover
p304
I1970
sS'sheltering'
p305
I3638
sS'lampost'
p306
I3526
sVteen
p307
I367
sS'trowsers'
p308
I4982
sS'dappling'
p309
I4481
sS'oven'
p310
I2656
sS'keyboard'
p311
I2550
sS'dwelling'
p312
I3177
sS'caster'
p313
I4015
sS'windshield'
p314
I2963
sS'wrought'
p315
I3173
sVplayhouse
p316
I35
sVforehead
p317
I2038
sS'entrances'
p318
I5048
sS'unzipped'
p319
I3402
sVfireman
p320
I1218
sS'directional'
p321
I3268
sS'personal'
p322
I4428
sVsoaking
p323
I1313
sVbackpack
p324
I36
sS'recreational'
p325
I4246
sVbeige
p326
I1239
sVwriting
p327
I1972
sVsprays
p328
I1314
sVbouquet
p329
I2455
sS'bulding'
p330
I5077
sVcroquet
p331
I1973
sS'vents'
p332
I3159
sS'hidden'
p333
I3833
sS'carton'
p334
I2933
sS'mown'
p335
I5030
sS'octogonal'
p336
I3266
sS'anin'
p337
I3399
sVthem
p338
I678
sS'duvet'
p339
I4812
sS'plaster'
p340
I4261
sVwire
p341
I582
sVschool
p342
I1930
sVfinish
p343
I899
sVflipping
p344
I847
sVbreak
p345
I680
sVband
p346
I681
sS'caterpillar'
p347
I3799
sS'giraffe'
p348
I3617
sS'newstand'
p349
I5023
sS'sack'
p350
I3362
sVthey
p351
I683
sVone
p352
I229
sS'slats'
p353
I3545
sVsilver
p354
I37
sVbank
p355
I684
sVbread
p356
I685
sS'shadows'
p357
I2632
sS'shaadows'
p358
I2907
sVseveral
p359
I2039
sS'fringed'
p360
I3360
sVrocky
p361
I686
sS'spigot'
p362
I4798
sS"tree's"
p363
I3639
sS'potatoes'
p364
I2771
sS'shadowy'
p365
I5108
sS'lightswitch'
p366
I4844
sS'l'
I4393
sVrocks
p367
I687
sVdumps
p368
I38
sVwooden
p369
I7
sS'filling'
p370
I3594
sS'fringes'
p371
I3679
sS'leaned'
p372
I4448
sS'arrow'
p373
I2721
sVeach
p374
I1974
sS'acoustic'
p375
I2891
sS'sliver'
p376
I2895
sVmeal
p377
I307
sVbone
p378
I1316
sS'mean'
p379
I4533
sS'gargoyle'
p380
I3543
sVcandy
p381
I1231
sVlifted
p382
I689
sS'hanger'
p383
I3408
sVkneels
p384
I690
sVlogs
p385
I691
sVseries
p386
I40
sS'mahogany'
p387
I3487
sVspider
p388
I41
sVsled
p389
I692
sS'strips'
p390
I3644
sVsee
p391
I434
sVjuggling
p392
I1976
sVnavy
p393
I1317
sVlogo
p394
I693
sVflock
p395
I694
sVmotorized
p396
I695
sVenclosure
p397
I1318
sS'clothe'
p398
I2684
sVsprints
p399
I696
sVlarge
p400
I350
sVrv
p401
I43
sVdriving
p402
I1977
sS'switchs'
p403
I2638
sVhaired
p404
I1978
sVcameras
p405
I697
sS'sockets'
p406
I3454
sVlaid
p407
I1979
sS'mountaain'
p408
I5089
sS'medicine'
p409
I4162
sS'revolving'
p410
I4435
sS'washer'
p411
I4205
sS"water's"
p412
I3542
sVsliding
p413
I698
sS'stringer'
p414
I3678
sS'foundation'
p415
I3690
sVsplashed
p416
I1980
sVturning
p417
I1319
sVbarrier
p418
I699
sS'carcass'
p419
I3589
sVhang
p420
I735
sVsheer
p421
I851
sVfree
p422
I1982
sVascending
p423
I1320
sVpumpkins
p424
I44
sVformation
p425
I1983
sVevil
p426
I56
sVhoodie
p427
I1321
sVbacklit
p428
I1322
sVchecked
p429
I852
sS'kit'
p430
I4598
sVknit
p431
I46
sS'uncooked'
p432
I3961
sS'suvs'
p433
I2712
sVbaseman
p434
I700
sVshaggy
p435
I1323
sS'exposing'
p436
I4872
sS'racquetball'
p437
I4212
sS'denture'
p438
I4380
sS'grasses'
p439
I4819
sVatm
p440
I47
sVmoment
p441
I1718
sVoutfits
p442
I1985
sVatv
p443
I48
sVfestival
p444
I558
sS'crosssing'
p445
I5072
sVmusicians
p446
I49
sS'"no'
p447
I4562
sVparked
p448
I1183
sVsoda
p449
I1986
sVtied
p450
I535
sVleaps
p451
I458
sS'lifejacket'
p452
I4118
sVonto
p453
I1987
sVbite
p454
I234
sVspeeds
p455
I50
sVcleaning
p456
I1073
sVbreed
p457
I854
sS'features'
p458
I4313
sS'champs'
p459
I4986
sS'pots'
p460
I3042
sVhoop
p461
I1326
sVplayfully
p462
I51
sS'unlit'
p463
I3109
sVthrown
p464
I2292
sS'hook'
p465
I4024
sVspinning
p466
I52
sS'floors'
p467
I2957
sS'ripples'
p468
I2814
sVanother
p469
I701
sS'tnhe'
p470
I4957
sS'comforter'
p471
I3409
sS'scissors'
p472
I2601
sVthick
p473
I702
sVditch
p474
I1327
sVelectronic
p475
I703
sS'assortment'
p476
I3984
sVhood
p477
I1328
sVhe
p478
I1249
sVbasketball
p479
I53
sS'hydrant'
p480
I2865
sS'service'
p481
I3414
sS'indicate'
p482
I3725
sVtop
p483
I1991
sVfootballer
p484
I1226
sVgirls
p485
I1329
sS'twisted'
p486
I4387
sVelevator
p487
I704
sVtoo
p488
I1992
sS'blossoms'
p489
I2946
sS'tea'
p490
I2793
sS'flagpole'
p491
I3706
sVlegs
p492
I54
sS'.'
I0
sVdogs
p493
I705
sS'stariway'
p494
I4300
sVtoe
p495
I1993
sS'kiwi'
p496
I2947
sVurban
p497
I1994
sVceiling
p498
I1995
sS'emblem'
p499
I3168
sS'balck'
p500
I3713
sS'centered'
p501
I4522
sVbouncing
p502
I1331
sVlunges
p503
I55
sS'brushes'
p504
I3914
sVbeanie
p505
I1723
sS'lavender'
p506
I2775
sS'smirnoff'
p507
I3979
sVextended
p508
I1566
sS'cereal'
p509
I2830
sS'knob'
p510
I2702
sS"bertucci's"
p511
I4528
sVboarding
p512
I424
sVdistance
p513
I1335
sS'minibus'
p514
I4751
sVtarget
p515
I707
sS'elegant'
p516
I4221
sVhike
p517
I708
sVcrosses
p518
I1131
sVtree
p519
I57
sVsecond
p520
I58
sVseated
p521
I709
sVgraffitied
p522
I710
sVshower
p523
I59
sVsilly
p524
I1336
sVspeaking
p525
I1337
sS'bl;ack'
p526
I4792
sVtackled
p527
I711
sS'lampstand'
p528
I2690
sS'enduro'
p529
I4655
sVmini
p530
I1338
sS'fashion'
p531
I4836
sS'bendable'
p532
I4874
sS'girder'
p533
I5076
sVrunner
p534
I60
sVboston
p535
I61
sS'modern'
p536
I3917
sVpaddles
p537
I62
sS'mine'
p538
I3104
sS'pigs'
p539
I3591
sS'sconce'
p540
I4003
sVtalking
p541
I2001
sVoutdoors
p542
I2312
sVshrubs
p543
I63
sS'leafs'
p544
I3461
sVseen
p545
I1340
sVleafy
p546
I2002
sS'tells'
p547
I3239
sS'contents'
p548
I2774
sS'ray'
p549
I2941
sS'triangle'
p550
I2738
sS'cactus'
p551
I4764
sS'secure'
p552
I4236
sS'escalator'
p553
I3868
sVperson
p554
I460
sVbleachers
p555
I65
sVsoaked
p556
I66
sVsnow
p557
I2003
sS'sedan'
p558
I2733
sS'metallic'
p559
I2683
sVracers
p560
I67
sVchest
p561
I1341
sS'nrespaper'
p562
I3756
sVchess
p563
I1342
sVdoors
p564
I68
sS'hatch'
p565
I3749
sS'indexed'
p566
I2798
sVflags
p567
I1724
sVswims
p568
I712
sVrides
p569
I2004
sVrider
p570
I2005
sVquarterback
p571
I1343
sVcrossbones
p572
I69
sS'circles'
p573
I3300
sS'blouse'
p574
I2879
sS'gravy'
p575
I3153
sS"men's"
p576
I3401
sS'zebras'
p577
I2911
sVthough
p578
I2006
sVobject
p579
I70
sS'upstairs'
p580
I4178
sS'dial'
p581
I2794
sVclears
p582
I1075
sVmouth
p583
I71
sS'scrimble'
p584
I3249
sS'letter'
p585
I3311
sS'retaining'
p586
I3133
sS'corded'
p587
I3118
sS'coin'
p588
I4167
sS'butternife'
p589
I3074
sVjean
p590
I2045
sS'grave'
p591
I3141
sS"girl's"
p592
I3655
sS'padding'
p593
I2561
sVsinger
p594
I72
sS'lifesaver'
p595
I4216
sS'rogers'
p596
I5059
sS'alarm'
p597
I2800
sS'flop'
p598
I3730
sVnighttime
p599
I1345
sVdog
p600
I1346
sS'valance'
p601
I3912
sS'thewall'
p602
I4608
sVpoints
p603
I1347
sVplace
p604
I2138
sS'pineapple'
p605
I3473
sS'screensaver'
p606
I3297
sVpointy
p607
I1348
sS'curio'
p608
I4091
sS'scotch'
p609
I3991
sVdribbling
p610
I960
sVdot
p611
I1349
sVsaying
p612
I74
sVcooking
p613
I75
sS'mitten'
p614
I3807
sS'pope'
p615
I4361
sS'reclined'
p616
I4066
sVstool
p617
I1623
sS'sweetner'
p618
I3421
sS'flagstone'
p619
I4664
sS'design'
p620
I2807
sVpadded
p621
I76
sVattempts
p622
I1350
sS'chandelier'
p623
I2826
sS'radio'
p624
I3065
sS'sharpie'
p625
I4384
sVstepping
p626
I1351
sVparticipate
p627
I77
sS'peddle'
p628
I3788
sS'recliner'
p629
I3444
sS'toast'
p630
I4322
sVcapes
p631
I78
sVtouches
p632
I79
sVbusy
p633
I80
sS'layout'
p634
I2673
sVjust
p635
I1403
sS'menu'
p636
I3413
sS'headling'
p637
I3538
sVfolded
p638
I1352
sS'sugar'
p639
I4928
sVtries
p640
I980
sVbush
p641
I81
sS'bicycyle'
p642
I3198
sS'dvds'
p643
I2892
sS'folder'
p644
I2784
sS'rice'
p645
I3019
sVgoalie
p646
I714
sS'rectangle'
p647
I2824
sVwearing
p648
I1353
sVplate
p649
I82
sS'tiles'
p650
I2675
sVsunglasses
p651
I2011
sVcolorful
p652
I1354
sS'champaign'
p653
I4196
sVrailings
p654
I717
sVstop
p655
I1355
sS'da'
p656
I3530
sS'pocket'
p657
I2877
sS'cracks'
p658
I3106
sVcovered
p659
I2445
sVtiled
p660
I1356
sVcushion
p661
I84
sVnew
p662
I1276
sS'rolled-up'
p663
I4044
sS'toolbox'
p664
I4098
sS'tips'
p665
I2819
sVsandy
p666
I1915
sS'dumpsters'
p667
I3101
sS'cleanly'
p668
I4826
sVruns
p669
I718
sVbar
p670
I1358
sS'runt'
p671
I3666
sS'spilling'
p672
I4018
sVcovering
p673
I719
sS'nicely'
p674
I4350
sVfields
p675
I1360
sVboarder
p676
I86
sVlicking
p677
I2016
sVbay
p678
I1361
sVjuggles
p679
I1866
sVbag
p680
I1362
sS'bad'
p681
I5063
sS'coke'
p682
I2618
sVpiggy
p683
I88
sS'grilled'
p684
I2768
sS'two-drawer'
p685
I2551
sS'automatic'
p686
I3419
sS'steam'
p687
I5061
sVears
p688
I1363
sVheaded
p689
I1054
sS'lettering'
p690
I2918
sVfair
p691
I89
sVobserves
p692
I720
sVfluffy
p693
I1364
sS'lemonade'
p694
I4347
sVpads
p695
I90
sVhuddle
p696
I1657
sS'noodles'
p697
I3808
sVjerseys
p698
I2017
sS'composed'
p699
I3939
sS'brick-stacked'
p700
I4858
sS'juliet'
p701
I2959
sS'pebbles'
p702
I3356
sS'draws'
p703
I2649
sVlots
p704
I91
sS'pasted'
p705
I4610
sVaway
p706
I721
sVsail
p707
I1365
sVgentleman
p708
I722
sVshaved
p709
I1366
sVartificial
p710
I1367
sS'partition'
p711
I3383
sVwetsuit
p712
I1368
sVmud
p713
I2018
sS'overgrown'
p714
I3661
sVscore
p715
I93
sVfinger
p716
I2020
sVpets
p717
I1369
sS'herb'
p718
I3228
sS'drawn'
p719
I2563
sVjumpsuit
p720
I1725
sS'cubby'
p721
I4675
sVpirate
p722
I94
sVskimpy
p723
I95
sVherding
p724
I2021
sVwears
p725
I1370
sS'rims'
p726
I3804
sS'rolled'
p727
I2706
sS'packaged'
p728
I4466
sS'vitamin'
p729
I4058
sS'lotion'
p730
I2608
sVstripped
p731
I1761
sS'sandal'
p732
I3384
sS'here'
p733
I4268
sVwheelbarrow
p734
I96
sS'modeling'
p735
I4327
sVpicking
p736
I1371
sS'packages'
p737
I4409
sVroller
p738
I97
sS'scribbling'
p739
I4950
sS'faced'
p740
I4622
sVcop
p741
I724
sS'protect'
p742
I4628
sVcow
p743
I725
sS'switchplate'
p744
I3494
sVcountry
p745
I98
sVmuseum
p746
I1243
sS'heating'
p747
I3426
sVagainst
p748
I1373
sVparticipating
p749
I2024
sVplayers
p750
I2025
sS'year'
p751
I4031
sVgames
p752
I2026
sVfaces
p753
I2027
sS'china'
p754
I3485
sS'#START#'
p755
I0
sS'bison'
p756
I5119
sS'cityscape'
p757
I4682
sS'tong'
p758
I4864
sS'character'
p759
I4715
sS'2nd'
p760
I4377
sVcanyon
p761
I100
sS'lanterns'
p762
I5041
sS'towels'
p763
I3417
sS'majestic'
p764
I3024
sVblonde
p765
I101
sS'trust'
p766
I4402
sS'grazing'
p767
I3585
sS'panel'
p768
I2787
sS'headlights'
p769
I2541
sS'conference'
p770
I3244
sS'pillars'
p771
I3404
sVbathroom
p772
I2028
sS'tint'
p773
I3877
sVputs
p774
I1375
sS'taffic'
p775
I3049
sVbikinis
p776
I2029
sVropes
p777
I2030
sVthree
p778
I1376
sS'poionting'
p779
I3754
sVquickly
p780
I2032
sS'chimneys'
p781
I3818
sS'awide'
p782
I3888
sVbeer
p783
I2033
sVmuch
p784
I103
sVstadium
p785
I104
sVcanopy
p786
I2482
sS'basin'
p787
I2791
sS'dollies'
p788
I2975
sS'tallest'
p789
I3712
sS'containers'
p790
I2960
sS'tube-light'
p791
I4951
sS'dots'
p792
I4491
sS'digits'
p793
I4733
sVlife
p794
I105
sS'loft'
p795
I3084
sVrelaxing
p796
I726
sVeastern
p797
I106
sS'diplaying'
p798
I4453
sVdroplets
p799
I727
sS'cieling'
p800
I4427
sS'sunshine'
p801
I4398
sVworker
p802
I107
sVlift
p803
I640
sVchild
p804
I109
sVcatch
p805
I2034
sS'unmelted'
p806
I4433
sVglider
p807
I1925
sVbounce
p808
I469
sS'carring'
p809
I4983
sS'east'
p810
I3860
sVtank
p811
I1380
sVreddish
p812
I1381
sS'taper'
p813
I3488
sS'blue-green'
p814
I2788
sVteenager
p815
I2051
sVair
p816
I728
sS'information'
p817
I5024
sVnear
p818
I1382
sS'melted'
p819
I4947
sS'ceilings'
p820
I3973
sVseeds
p821
I1140
sS'stopping'
p822
I5067
sS'aid'
p823
I3279
sS'cracked'
p824
I3377
sVbalance
p825
I1383
sVleaves
p826
I1944
sVskirts
p827
I110
sVburied
p828
I243
sS'doormat'
p829
I2760
sVseven
p830
I1384
sVpyramid
p831
I2035
sS'payphone'
p832
I3034
sVfencing
p833
I1256
sVcanoeing
p834
I111
sVhandrail
p835
I2036
sS'linked'
p836
I2924
sVis
p837
I1385
sS'sushi'
p838
I2994
sVit
p839
I1386
sS'ii'
p840
I4364
sVplayer
p841
I113
sVtiny
p842
I1377
sS'tissue'
p843
I3287
sS'brake'
p844
I3167
sVcone
p845
I729
sS'exterior'
p846
I4476
sVin
p847
I1388
sVheavily
p848
I2324
sVviolin
p849
I114
sVmouse
p850
I1389
sS'id'
p851
I3871
sS'grown'
p852
I3636
sVcontaining
p853
I2037
sS'dhl'
p854
I4987
sVbottles
p855
I1390
sS'emergency'
p856
I5049
sVseashore
p857
I800
sVsoldier
p858
I968
sVperform
p859
I731
sVthings
p860
I115
sVmake
p861
I1391
sS'toaster'
p862
I2655
sS'wound'
p863
I4573
sS'amount'
p864
I4465
sS'plated'
p865
I4311
sS'intersecting'
p866
I3663
sVbeside
p867
I1971
sS'backed'
p868
I3046
sVhangs
p869
I2304
sS'bottled'
p870
I3495
sVbelly
p871
I1392
sVbabies
p872
I116
sS'broown'
p873
I4248
sVplates
p874
I732
sVshoveling
p875
I1393
sVsidelines
p876
I1394
sVbunny
p877
I733
sS'volkswagen'
p878
I3237
sVeuropean
p879
I118
sVwheel
p880
I734
sS'townhomes'
p881
I3190
sS'satellite'
p882
I2954
sS'sittin'
p883
I4604
sS'jamb'
p884
I4014
sS'juniper'
p885
I3637
sVsings
p886
I2041
sS'smimsuit'
p887
I4215
sS'pinstripe'
p888
I4507
sVtops
p889
I119
sS'speakers'
p890
I2956
sVrain
p891
I736
sVhand
p892
I737
sVphotographers
p893
I120
sS'stucco'
p894
I5098
sVwaterfall
p895
I1396
sS'fry'
p896
I4318
sS'blazer'
p897
I3870
sVon
p898
I518
sS'discoloration'
p899
I5092
sVkid
p900
I1397
sS'mentioning'
p901
I4990
sS'wispy'
p902
I3579
sVromp
p903
I1399
sVcross
p904
I2489
sS'drit'
p905
I2926
sVsmokes
p906
I1400
sS'opf'
p907
I4508
sVocean
p908
I2043
sS'bedspread'
p909
I3430
sVpractices
p910
I1401
sVdoes
p911
I615
sVmother
p912
I2044
sVthe
p913
I738
sVflops
p914
I713
sVmusical
p915
I739
sS'plaque'
p916
I3704
sVleft
p917
I1402
sVsnowman
p918
I2046
sVsticking
p919
I2258
sVmedals
p920
I293
sVphotographer
p921
I745
sVsleeps
p922
I121
sVathletic
p923
I740
sVphoto
p924
I741
sVsporting
p925
I1404
sS'pegs'
p926
I4039
sS'no-climb'
p927
I4441
sVgoggles
p928
I742
sVthumbs
p929
I2048
sVhuman
p930
I1405
sS'picasso'
p931
I4287
sS'bracketed'
p932
I4479
sVtattooed
p933
I1406
sS'brackets'
p934
I4612
sVlasso
p935
I122
sS'transformer'
p936
I4487
sS'spotlessly'
p937
I4813
sVhills
p938
I744
sS'flooring'
p939
I3447
sS'brassiere'
p940
I5066
sVfurry
p941
I2050
sVbalances
p942
I765
sS'had'
p943
I4220
sVhilly
p944
I746
sVhay
p945
I123
sS'chartreuse'
p946
I5084
sVspread
p947
I747
sVboard
p948
I748
sS'againsst'
p949
I3102
sS'offwhite'
p950
I4832
sVhas
p951
I124
sVhat
p952
I125
sVclapping
p953
I1633
sVphotographed
p954
I749
sVfiretruck
p955
I1765
sVbook
p956
I2501
sVturquoise
p957
I2052
sVcasting
p958
I2053
sS'bands'
p959
I3175
sVposed
p960
I126
sVcaps
p961
I750
sS'possibly'
p962
I4420
sVboxes
p963
I751
sVboxer
p964
I752
sVdescending
p965
I2054
sVbackground
p966
I1407
sVforested
p967
I1408
sVcape
p968
I753
sVshadow
p969
I127
sVposes
p970
I743
sS'burnt'
p971
I4026
sS'bushy'
p972
I2920
sS'vanity'
p973
I3406
sVshoulder
p974
I1409
sVmelting
p975
I2056
sS'delievery'
p976
I4967
sS'gift'
p977
I4041
sS'cooler'
p978
I4072
sS'visor'
p979
I3628
sS'capital'
p980
I4520
sVperforming
p981
I1410
sS'armoire'
p982
I3418
sS'xbox'
p983
I2860
sS'tee-shirt'
p984
I3125
sVpavement
p985
I128
sVsteps
p986
I129
sVofficer
p987
I2057
sS'vegtable'
p988
I4339
sVnight
p989
I754
sS'hung'
p990
I2667
sS'reams'
p991
I2599
sVsecurity
p992
I755
sS'valence'
p993
I4134
sS'pillar'
p994
I3063
sS'antique'
p995
I3180
sVbutterfly
p996
I246
sVright
p997
I130
sVold
p998
I131
sVcreek
p999
I132
sVcrowd
p1000
I133
sVpeople
p1001
I134
sVcrown
p1002
I135
sVhanding
p1003
I247
sVdead
p1004
I771
sS'sponge'
p1005
I2939
sS'globes'
p1006
I2828
sS'silvery'
p1007
I4298
sS'anti-acid'
p1008
I2938
sS'meters'
p1009
I2708
sS'escape'
p1010
I2955
sVbillboard
p1011
I136
sS'advertise'
p1012
I3533
sVleashed
p1013
I626
sS'graze'
p1014
I3080
sS'cooper'
p1015
I4694
sS'theatre'
p1016
I3822
sVfor
p1017
I137
sVbottom
p1018
I138
sVpurple
p1019
I756
sVear
p1020
I1247
sS'microwave'
p1021
I2693
sS'insignia'
p1022
I3544
sVicy
p1023
I2060
sVfog
p1024
I781
sS'skylight'
p1025
I3552
sS'cnn'
p1026
I4738
sVskateboarder
p1027
I1415
sVchristmas
p1028
I2061
sS'flaps'
p1029
I2785
sS'cord'
p1030
I2698
sS'shaker'
p1031
I2973
sVshakes
p1032
I139
sS'tartar'
p1033
I3669
sS'sparse'
p1034
I4407
sVcorn
p1035
I2063
sVtrampoline
p1036
I140
sS'cork'
p1037
I2589
sS'ina'
p1038
I3999
sS'binder'
p1039
I4574
sS'lamps'
p1040
I2890
sS'bolt'
p1041
I4189
sVstarring
p1042
I795
sVscarves
p1043
I2105
sVpost
p1044
I759
sS'headstone'
p1045
I3140
sS'louvers'
p1046
I3347
sS'chain-link'
p1047
I4551
sS'scaffolding'
p1048
I2951
sVtrophy
p1049
I760
sS'breaded'
p1050
I2989
sVdunking
p1051
I1416
sVyelling
p1052
I1417
sVeat
p1053
I1248
sVcowboy
p1054
I2065
sS'coral'
p1055
I4615
sS'rim'
p1056
I2862
sS'surroung'
p1057
I4677
sS'surround'
p1058
I5097
sS'situated'
p1059
I4206
sVmagazine
p1060
I1418
sS'masts'
p1061
I3342
sS'plus'
p1062
I3881
sVspins
p1063
I468
sVhorizon
p1064
I762
sVown
p1065
I2520
sS'leprechaun'
p1066
I5052
sS'two-toned'
p1067
I3773
sVhospital
p1068
I1950
sVbath
p1069
I2067
sS'saddled'
p1070
I4273
sVraised
p1071
I825
sS'faint'
p1072
I3194
sS'dials'
p1073
I4079
sS'thermostat'
p1074
I2983
sS'ribs'
p1075
I3902
sS'mantle'
p1076
I3095
sVtinkerbell
p1077
I1419
sS'puzzle'
p1078
I2606
sVfloat
p1079
I763
sVbound
p1080
I764
sVson
p1081
I144
sVdown
p1082
I835
sVlies
p1083
I1420
sS'carafe'
p1084
I3223
sVmagazines
p1085
I145
sVraises
p1086
I146
sVcarving
p1087
I1421
sS'wrap'
p1088
I2842
sVpetting
p1089
I2058
sVshoots
p1090
I147
sS'cubicle'
p1091
I2585
sVrounds
p1092
I2068
sS'gauzy'
p1093
I4281
sS"miner's"
p1094
I3108
sS'wal'
p1095
I4096
sVfabric
p1096
I148
sVwaits
p1097
I149
sS'sidings'
p1098
I4876
sVlake
p1099
I1883
sS'support'
p1100
I4176
sVflying
p1101
I844
sS'fuchsia'
p1102
I5051
sVsunlight
p1103
I2069
sVfight
p1104
I766
sVstuck
p1105
I2070
sS'quiet'
p1106
I3632
sS'towing'
p1107
I4704
sS"boy's"
p1108
I3762
sVway
p1109
I767
sS'wax'
p1110
I4948
sVoverhead
p1111
I1292
sS'avocados'
p1112
I5043
sVwas
p1113
I768
sVwar
p1114
I769
sVoverhang
p1115
I1642
sVhappy
p1116
I150
sS'fork'
p1117
I2574
sVhead
p1118
I2071
sVmedium
p1119
I2072
sVsteers
p1120
I2073
sS'form'
p1121
I4053
sVsnowy
p1122
I770
sS'foilage'
p1123
I3971
sVbatman
p1124
I1424
sVfireworks
p1125
I1425
sS'stereo'
p1126
I4848
sVlanding
p1127
I1426
sS'ford'
p1128
I4555
sS'wireless'
p1129
I2554
sS'notifications'
p1130
I4806
sS'needles'
p1131
I3848
sVhear
p1132
I2074
sVelderly
p1133
I1411
sS'canopies'
p1134
I4527
sS'sailboats'
p1135
I2560
sS'removed'
p1136
I3445
sS'neighboring'
p1137
I4431
sVbegins
p1138
I1334
sS'paneled'
p1139
I3202
sS'parkin'
p1140
I4748
sS'cylinders'
p1141
I3783
sVmartial
p1142
I1739
sVlimousine
p1143
I1951
sVinside
p1144
I151
sVattached
p1145
I1428
sVbounds
p1146
I1429
sS'whiskey'
p1147
I3892
sVlays
p1148
I152
sS'coverings'
p1149
I4767
sS'panels'
p1150
I2781
sVleaf
p1151
I2507
sS'trim'
p1152
I2898
sVbrightly
p1153
I2075
sS'eifel'
p1154
I4294
sVwrestles
p1155
I2268
sS'spatula'
p1156
I2873
sVsticks
p1157
I1430
sVclassic
p1158
I1431
sVtoss
p1159
I1432
sS'abstract'
p1160
I4829
sVtournament
p1161
I153
sVmuscular
p1162
I772
sS'sticky'
p1163
I2575
sVfashioned
p1164
I1434
sVfemales
p1165
I21
sVship
p1166
I898
sS'sodas'
p1167
I2617
sS'mousepad'
p1168
I2619
sS'k'
I4429
sS'baguette'
p1169
I4895
sVdimly
p1170
I773
sVoutstretched
p1171
I2077
sS'dying'
p1172
I3580
sVfloor
p1173
I155
sVglacier
p1174
I156
sS'skirted'
p1175
I4776
sS"stove's"
p1176
I2977
sVleafless
p1177
I1436
sVtossing
p1178
I905
sVhanded
p1179
I1438
sVgrabbing
p1180
I2261
sS'tin'
p1181
I4092
sVsetting
p1182
I2079
sS'republic'
p1183
I5009
sVholding
p1184
I774
sVdigital
p1185
I1439
sVtest
p1186
I775
sVtie
p1187
I2081
sVribbons
p1188
I1440
sVroll
p1189
I157
sS'evergreen'
p1190
I3023
sVgreenery
p1191
I158
sVbatsman
p1192
I369
sS'lollipops'
p1193
I4040
sVsling
p1194
I1441
sS'handicap'
p1195
I3635
sVfairground
p1196
I776
sVfootball
p1197
I2083
sS'notepad'
p1198
I3429
sVclass
p1199
I2469
sS'yellowstone'
p1200
I4968
sS'ridges'
p1201
I4484
sVrolling
p1202
I159
sVyounger
p1203
I2084
sVback
p1204
I1738
sS'outskirts'
p1205
I4668
sVpotato
p1206
I1442
sS'sacks'
p1207
I3354
sS'navel'
p1208
I2871
sS'packets'
p1209
I3226
sVflag
p1210
I2263
sVtogether
p1211
I777
sS'filing'
p1212
I2552
sVjacket
p1213
I1443
sVcarts
p1214
I1413
sVrough
p1215
I571
sS'text'
p1216
I3720
sVapart
p1217
I2055
sVteeth
p1218
I1444
sVpush
p1219
I161
sVbanners
p1220
I162
sS'stacks'
p1221
I2801
sVigloo
p1222
I778
sVgown
p1223
I163
sVcoach
p1224
I2085
sS'rom'
p1225
I4581
sVchain
p1226
I164
sS'switched'
p1227
I2566
sVdance
p1228
I779
sS'patina'
p1229
I3379
sVskis
p1230
I1445
sVrod
p1231
I2086
sS'madison'
p1232
I5056
sS'silverware'
p1233
I2850
sVhorseback
p1234
I780
sVleads
p1235
I2087
sS'roy'
p1236
I5058
sVskate
p1237
I166
sS'daytime'
p1238
I2633
sVskiing
p1239
I167
sVtrashcan
p1240
I168
sS'mill'
p1241
I3996
sS'toothpick'
p1242
I3483
sVmidst
p1243
I170
sVrow
p1244
I2088
sS'layers'
p1245
I3709
sVballet
p1246
I962
sS'ware'
p1247
I2678
sS'grape'
p1248
I2833
sS'balding'
p1249
I2755
sS'zone'
p1250
I4744
sS'hump'
p1251
I4777
sVfather
p1252
I1447
sS'pounding'
p1253
I5100
sS'crates'
p1254
I3313
sS'gerber'
p1255
I4083
sVbicycles
p1256
I171
sVbicycler
p1257
I172
sS'marks'
p1258
I2634
sS'gestoria'
p1259
I4540
sS'burners'
p1260
I2790
sVbrown
p1261
I782
sVprotective
p1262
I783
sVstring
p1263
I1448
sS'footboard'
p1264
I3469
sVgrinds
p1265
I2244
sS'gloomy'
p1266
I3727
sS'champainge'
p1267
I3993
sVskateboarders
p1268
I939
sS'artwork'
p1269
I3346
sS'cook'
p1270
I4934
sS'locked'
p1271
I2931
sS'multistory'
p1272
I2713
sS'margarita'
p1273
I3976
sVdim
p1274
I1449
sS'stapler'
p1275
I3766
sS'staples'
p1276
I2714
sVtricycle
p1277
I173
sVturns
p1278
I784
sVposts
p1279
I2092
sVbrother
p1280
I2093
sVcloudy
p1281
I2094
sVtravels
p1282
I998
sVitem
p1283
I1451
sS'spaces'
p1284
I4572
sS'brownish'
p1285
I4358
sS'tums'
p1286
I2937
sVteal
p1287
I175
sVteam
p1288
I176
sS'lever'
p1289
I2795
sVsidewalk
p1290
I786
sS'woven'
p1291
I2685
sVround
p1292
I1452
sS'seaweed'
p1293
I3609
sVupper
p1294
I787
sS'bulldozer'
p1295
I3724
sS'blade'
p1296
I2752
sVsays
p1297
I2095
sVmeadow
p1298
I177
sVbe
p1299
I473
sVtrails
p1300
I178
sVsign
p1301
I179
sVkhaki
p1302
I2062
sVworn
p1303
I663
sS'overspill'
p1304
I3393
sS'patient'
p1305
I4064
sS'bales'
p1306
I4109
sVport
p1307
I2097
sVdrinks
p1308
I2098
sVplaypen
p1309
I182
sVheadset
p1310
I183
sVappear
p1311
I788
sVperforms
p1312
I2451
sS'boardgames'
p1313
I4890
sS'spire'
p1314
I2921
sS'chimmeney'
p1315
I3928
sVuniform
p1316
I789
sS'tarmac'
p1317
I3567
sS'satelite'
p1318
I5078
sVgoes
p1319
I2100
sVusing
p1320
I1261
sS'illustrations'
p1321
I4926
sVfalling
p1322
I185
sVcrashing
p1323
I186
sVsweaters
p1324
I1046
sVjumps
p1325
I2374
sVfilled
p1326
I1455
sVhairy
p1327
I2101
sS'supporting'
p1328
I2950
sVpose
p1329
I758
sS'banister'
p1330
I3163
sVfoliage
p1331
I1300
sS'fedex'
p1332
I4971
sVclimbs
p1333
I187
sS'clerk'
p1334
I4059
sVmakeup
p1335
I1456
sVfrench
p1336
I1457
sVrug
p1337
I1087
sVwater
p1338
I2102
sVcoloring
p1339
I1841
sVbaseball
p1340
I2103
sS'chainlink'
p1341
I3205
sS'address'
p1342
I3123
sValone
p1343
I188
sS'mugs'
p1344
I3208
sS'frosting'
p1345
I3947
sVhoops
p1346
I2344
sVappears
p1347
I791
sS'change'
p1348
I4626
sVwait
p1349
I1458
sVbox
p1350
I1459
sVpassengers
p1351
I190
sS'crumbles'
p1352
I4304
sVincoming
p1353
I792
sVstair
p1354
I869
sVflames
p1355
I793
sVdusty
p1356
I191
sS'"cinnamon'
p1357
I3957
sS'lily'
p1358
I4082
sS'united'
p1359
I2899
sVbow
p1360
I1461
sVwomen
p1361
I1462
sS'bangs'
p1362
I2772
sS'cinnamon'
p1363
I3064
sV(
I1185
sVboa
p1364
I1463
sVpillow
p1365
I794
sVmassage
p1366
I1464
sVteenage
p1367
I1465
sVlove
p1368
I1077
sVhiking
p1369
I796
sVjar
p1370
I572
sVmarked
p1371
I797
sVuphill
p1372
I798
sS'geckos'
p1373
I3157
sVsnowboard
p1374
I799
sS'lamppost'
p1375
I3182
sVfake
p1376
I192
sVmarker
p1377
I801
sS'forefront'
p1378
I3010
sVmarket
p1379
I802
sVsky
p1380
I2500
sVbaby
p1381
I520
sS'bulbs'
p1382
I3439
sS'crammed'
p1383
I4723
sS'sunbathing'
p1384
I2813
sVworking
p1385
I193
sVlockers
p1386
I1467
sVdalmatian
p1387
I2064
sS'filters'
p1388
I4841
sS'hecopab'
p1389
I4112
sS'tubes'
p1390
I3915
sVsports
p1391
I2106
sS'connector'
p1392
I2902
sVhandles
p1393
I2107
sVgoing
p1394
I254
sS'frothy'
p1395
I4330
sS'thru'
p1396
I4721
sVangels
p1397
I803
sS'nozzle'
p1398
I4449
sS'today'
p1399
I5022
sS'plug'
p1400
I2935
sS'entrance'
p1401
I2736
sVsharing
p1402
I1468
sS'countertop'
p1403
I2668
sVclub
p1404
I804
sVclaus
p1405
I195
sS'envelope'
p1406
I2843
sVchocolate
p1407
I2108
sS'downtown'
p1408
I5073
sS'marbled'
p1409
I4395
sVeverywhere
p1410
I196
sS'olive'
p1411
I3428
sS'cases'
p1412
I4000
sS'hexagons'
p1413
I4978
sVriders
p1414
I197
sVmascot
p1415
I198
sVfly
p1416
I1469
sVautumn
p1417
I375
sS'pumkin'
p1418
I3248
sS'thermos'
p1419
I3261
sVskaters
p1420
I806
sVcar
p1421
I807
sVcap
p1422
I808
sVcat
p1423
I809
sS'decker'
p1424
I3650
sS'soup'
p1425
I3742
sS'labeled'
p1426
I4062
sS'printing'
p1427
I4985
sVcan
p1428
I810
sS'cam'
p1429
I4620
sVfollowing
p1430
I199
sS'cab'
p1431
I2719
sS'cordless'
p1432
I4548
sVpumpkin
p1433
I871
sVbites
p1434
I1471
sVnewspapers
p1435
I761
sVbreeds
p1436
I811
sS'streak'
p1437
I5093
sVoverpass
p1438
I2110
sVperformer
p1439
I2111
sVgrassy
p1440
I2417
sVfigure
p1441
I2112
sVpauses
p1442
I813
sS'stetson'
p1443
I4369
sS'pleated'
p1444
I4774
sVdiving
p1445
I303
sS'mailboxes'
p1446
I4695
sVparachute
p1447
I200
sS"bird's"
p1448
I3606
sS'tinted'
p1449
I3520
sVchin
p1450
I814
sVo
I142
sVhides
p1451
I201
sVpond
p1452
I2271
sVgas
p1453
I1714
sS'spa'
p1454
I4115
sVclothing
p1455
I815
sS'buildng'
p1456
I3527
sS'magenta'
p1457
I4163
sVlistens
p1458
I202
sVpink
p1459
I1473
sS'rays'
p1460
I3774
sVwinter
p1461
I203
sVsailboat
p1462
I2113
sVnecklaces
p1463
I1474
sVget
p1464
I1531
sS'ping'
p1465
I4093
sVdinner
p1466
I2066
sVpine
p1467
I1475
sVlounge
p1468
I2443
sS'sprouting'
p1469
I4838
sS'refridgerator'
p1470
I3195
sVhamburgers
p1471
I978
sVskater
p1472
I1476
sVelephant
p1473
I204
sVtile
p1474
I1478
sVyouth
p1475
I1680
sS'absolute'
p1476
I3988
sS'divider'
p1477
I3219
sVpathway
p1478
I1479
sS't-shirts'
p1479
I3959
sS'flavored'
p1480
I3986
sS'map'
p1481
I3196
sS'laundry'
p1482
I2974
sVmat
p1483
I1480
sVcrashes
p1484
I2115
sVhuge
p1485
I377
sS'tilting'
p1486
I5080
sVdive
p1487
I818
sVspot
p1488
I205
sS'grounds'
p1489
I4437
sS'mac'
p1490
I3276
sVbirthday
p1491
I2116
sS'tipped'
p1492
I3216
sS'designed'
p1493
I3503
sVwakeboarder
p1494
I2117
sS'vases'
p1495
I4676
sVfloral
p1496
I2118
sS'shelving'
p1497
I4611
sS'tablecloth'
p1498
I2837
sVheadscarf
p1499
I950
sVlifting
p1500
I819
sVman
p1501
I1482
sS'muggy'
p1502
I5112
sS'close-up'
p1503
I4556
sVsurfing
p1504
I206
sVnatural
p1505
I207
sVneck
p1506
I1483
sVliquid
p1507
I2120
sVspraying
p1508
I1532
sVcandles
p1509
I822
sVwheelchair
p1510
I208
sVponytail
p1511
I637
sS'placemat'
p1512
I4155
sVtheir
p1513
I2458
sS'cascade'
p1514
I4116
sS'switch'
p1515
I2661
sS'branched'
p1516
I4757
sS'jail'
p1517
I4124
sVafrican
p1518
I1484
sVbasket
p1519
I1176
sVtall
p1520
I1485
sS'shinning'
p1521
I3576
sVpulled
p1522
I211
sVtalk
p1523
I1179
sVnearly
p1524
I1533
sVcute
p1525
I1487
sS'serving'
p1526
I3667
sVshoes
p1527
I1488
sS'furnished'
p1528
I4909
sS'entryway'
p1529
I2953
sVkayaks
p1530
I212
sVhaircut
p1531
I824
sS'displayed'
p1532
I2859
sS'manholes'
p1533
I4459
sVmaking
p1534
I1470
sS'kong'
p1535
I4697
sS'decals'
p1536
I3156
sS'short-nap'
p1537
I4644
sS'ducklings'
p1538
I3665
sVbucking
p1539
I215
sS'terrace'
p1540
I3927
sS'ventilator'
p1541
I4184
sVpitch
p1542
I1490
sVcold
p1543
I826
sVstill
p1544
I827
sS'middle-aged'
p1545
I4649
sVbirds
p1546
I828
sVblocked
p1547
I2121
sS'foldable'
p1548
I4739
sS'limbs'
p1549
I4853
sS'soffet'
p1550
I4406
sVgroup
p1551
I1491
sVmonitor
p1552
I1492
sVcurly
p1553
I829
sVaccordion
p1554
I217
sVinteresting
p1555
I1493
sS'bagels'
p1556
I2676
sVcheerleaders
p1557
I2123
sS'buns'
p1558
I3956
sS'chalice'
p1559
I3128
sVplatform
p1560
I2124
sVwindow
p1561
I830
sS'varying-size'
p1562
I3936
sS'windos'
p1563
I4404
sS'mail'
p1564
I3296
sVswans
p1565
I2125
sS'petition'
p1566
I4630
sVapron
p1567
I218
sS'usa'
p1568
I5021
sVwaist
p1569
I1166
sS'tucked'
p1570
I4284
sVgray
p1571
I1187
sS'matches'
p1572
I2699
sVhugs
p1573
I378
sVfuzzy
p1574
I2010
sS'rearview'
p1575
I3149
sVscaling
p1576
I831
sS'records'
p1577
I4835
sVtouching
p1578
I1494
sVtails
p1579
I832
sVdrilling
p1580
I219
sS'refrigerated'
p1581
I3943
sVinnertube
p1582
I1097
sVnot
p1583
I833
sS'taillight'
p1584
I2863
sS'ketchup'
p1585
I4319
sVrunners
p1586
I220
sS'matched'
p1587
I3490
sVwagon
p1588
I2127
sS'name'
p1589
I2780
sVscooters
p1590
I1304
sS'keyboards'
p1591
I3273
sS'arrows'
p1592
I3186
sS'weaing'
p1593
I5037
sVfisherman
p1594
I221
sVbutter
p1595
I1398
sVbowling
p1596
I222
sVhardhat
p1597
I1498
sS"nurse's"
p1598
I3329
sVcliffs
p1599
I836
sS'turtle'
p1600
I4227
sVtrunks
p1601
I2128
sVretrieve
p1602
I224
sS'primarily'
p1603
I2966
sS'elephants'
p1604
I3301
sS'fluted'
p1605
I4307
sS'receipt'
p1606
I4805
sS'windchime'
p1607
I4686
sS'goose'
p1608
I3990
sVcatching
p1609
I2129
sS'zebra'
p1610
I2822
sS'entering'
p1611
I3826
sS'signage'
p1612
I2715
sVgirl
p1613
I1499
sS'pills'
p1614
I4324
sVamusement
p1615
I837
sS'album'
p1616
I2625
sVliving
p1617
I1500
sS'canvas'
p1618
I3303
sVjackson
p1619
I1501
sS'opened'
p1620
I3091
sVspace
p1621
I839
sS'rounding'
p1622
I5011
sVtulips
p1623
I2130
sVoklahoma
p1624
I2131
sS'keno'
p1625
I4394
sVrolls
p1626
I1092
sVlooking
p1627
I840
sVcountryside
p1628
I381
sS'opener'
p1629
I2700
sS'void'
p1630
I4706
sS'side-by-side'
p1631
I4639
sS'formula'
p1632
I4625
sS'squares'
p1633
I4486
sS'flffy'
p1634
I4913
sVshows
p1635
I841
sVmaneuver
p1636
I2133
sS'lightpost'
p1637
I2636
sS'patios'
p1638
I3522
sVmonster
p1639
I1502
sS'curbs'
p1640
I5046
sS'hull'
p1641
I4762
sS'million'
p1642
I5070
sS'envelop'
p1643
I4788
sVcart
p1644
I14
sVfive
p1645
I609
sVjockey
p1646
I1753
sS'vinyl'
p1647
I4870
sS'besides'
p1648
I4995
sS'marina'
p1649
I3341
sVheadband
p1650
I1504
sS'marine'
p1651
I5111
sVgrab
p1652
I1189
sVcard
p1653
I843
sS'gir'
p1654
I3539
sS'shores'
p1655
I4683
sVtraining
p1656
I227
sVsilhouetted
p1657
I228
sVcarnival
p1658
I2109
sVwaiter
p1659
I1506
sVheadphones
p1660
I1507
sS'programming'
p1661
I3293
sVbenches
p1662
I141
sVmotion
p1663
I2136
sS'thing'
p1664
I2611
sVgrabs
p1665
I1621
sS'mesh'
p1666
I4653
sS'tangled'
p1667
I4549
sS'massive'
p1668
I5039
sVswing
p1669
I2139
sS'wastebasket'
p1670
I2709
sS'router'
p1671
I3809
sS'domed'
p1672
I3599
sS'saucers'
p1673
I4917
sVstar
p1674
I1257
sS'parrot'
p1675
I3604
sVfirst
p1676
I1508
sS'blind'
p1677
I3802
sVpelican
p1678
I2141
sVtennis
p1679
I1423
sS'saving'
p1680
I4713
sVstriking
p1681
I845
sVlone
p1682
I2380
sVcoming
p1683
I1646
sVmountainside
p1684
I846
sS'cpus'
p1685
I2588
sS'crib'
p1686
I3119
sS'bluish'
p1687
I4460
sS"d'albe"
p1688
I4635
sVsoaring
p1689
I2143
sVfetches
p1690
I2144
sVfast
p1691
I2381
sVrink
p1692
I848
sVcarry
p1693
I1510
sVchubby
p1694
I230
sVpotted
p1695
I231
sVopen
p1696
I232
sS'angular'
p1697
I4769
sS'ont'
p1698
I3523
sS'size'
p1699
I3099
sVsheep
p1700
I850
sVcity
p1701
I233
sVlittle
p1702
I1511
sS'blonde-haired'
p1703
I5016
sVsheet
p1704
I45
sS'molded'
p1705
I4276
sVlap
p1706
I672
sVcaught
p1707
I853
sVparticipates
p1708
I1512
sVplastic
p1709
I2146
sS'jury'
p1710
I4641
sS"adult's"
p1711
I2626
sS'checker'
p1712
I4791
sV2
I1330
sS'types'
p1713
I2993
sVstuffed
p1714
I235
sS'typing'
p1715
I3285
sS'streetlight'
p1716
I3233
sVwhite
p1717
I2149
sVreturns
p1718
I2147
sVstructures
p1719
I236
sVframe
p1720
I579
sVfriend
p1721
I855
sVgives
p1722
I2150
sS'hue'
p1723
I4843
sVeyes
p1724
I1513
sVhug
p1725
I2151
sVbridesmaids
p1726
I480
sVmostly
p1727
I856
sVthat
p1728
I941
sVfloppy
p1729
I237
sS'season'
p1730
I3014
sS'shawl'
p1731
I3061
sS'flatscreen'
p1732
I4283
sVhut
p1733
I2152
sVflowery
p1734
I857
sVeyed
p1735
I1514
sS'gin'
p1736
I3983
sS'absorbs'
p1737
I2888
sVflowers
p1738
I858
sS'holder'
p1739
I2663
sS'silvrer'
p1740
I4568
sVwide
p1741
I2153
sS'television'
p1742
I2757
sS'velveteen'
p1743
I4786
sVsailing
p1744
I1359
sS'oats'
p1745
I2999
sVrival
p1746
I238
sVcrowded
p1747
I1647
sVkarate
p1748
I859
sVcoats
p1749
I239
sS'siding'
p1750
I2866
sS'r'
I3674
sS'knives'
p1751
I2662
sVapples
p1752
I860
sS'fruits'
p1753
I2682
sVcards
p1754
I2154
sVcollege
p1755
I2170
sVscuba
p1756
I240
sVtractor
p1757
I1516
sS'powder'
p1758
I2612
sVand
p1759
I99
sVgathering
p1760
I1374
sVtwisting
p1761
I2156
sS'san'
p1762
I5104
sS'angel'
p1763
I4952
sS'tarts'
p1764
I3946
sS'slat'
p1765
I3998
sVseal
p1766
I1537
sVturned
p1767
I241
sVfew
p1768
I2421
sValley
p1769
I242
sS'crossover'
p1770
I3191
sS'dash'
p1771
I3625
sVwinding
p1772
I1517
sVhimself
p1773
I1093
sS'tanning'
p1774
I4862
sS'rent'
p1775
I3557
sVdistorted
p1776
I861
sS'portrait'
p1777
I4013
sVsells
p1778
I2157
sS'saw'
p1779
I4263
sS'any'
p1780
I4088
sVmarathon
p1781
I2158
sVsuperman
p1782
I2159
sVthese
p1783
I892
sS'conversion'
p1784
I4519
sVhooded
p1785
I1518
sVsilhouette
p1786
I2160
sS'baggage'
p1787
I3573
sS'thorny'
p1788
I3124
sS'note'
p1789
I2576
sS'dining'
p1790
I2765
sS'wlaking'
p1791
I4552
sVtake
p1792
I245
sS'roadside'
p1793
I3819
sS'interior'
p1794
I4033
sVperformance
p1795
I1519
sS'rounded'
p1796
I3682
sVatop
p1797
I484
sS'channel'
p1798
I4722
sS'specks'
p1799
I3897
sVsurf
p1800
I2161
sS'topping'
p1801
I4914
sVskinned
p1802
I1520
sVmultiple
p1803
I2162
sVequestrian
p1804
I2163
sVpail
p1805
I1412
sVopposite
p1806
I248
sVtrack
p1807
I1414
sS'price'
p1808
I3945
sS'neatly'
p1809
I2880
sVfalls
p1810
I2164
sVsnake
p1811
I540
sS'printed'
p1812
I3278
sVsheets
p1813
I1521
sVpair
p1814
I1522
sVknee
p1815
I249
sVtugging
p1816
I1523
sS'cleared'
p1817
I3694
sS'armrest'
p1818
I2875
sS'greyish'
p1819
I4613
sS'peninsula'
p1820
I5110
sVlawn
p1821
I250
sS'peice'
p1822
I3909
sS'amtrak'
p1823
I5060
sVboys
p1824
I1758
sS'egg'
p1825
I2832
sS'seafood'
p1826
I3668
sS'napkin'
p1827
I2829
sVdrive
p1828
I251
sS'cushioned'
p1829
I2810
sS'moose'
p1830
I3977
sS'crooked'
p1831
I3547
sS'heinecken'
p1832
I3500
sVsunset
p1833
I863
sS'backdrop'
p1834
I4197
sVclearing
p1835
I864
sS'grassland'
p1836
I3004
sVprofessional
p1837
I865
sS'salt'
p1838
I2846
sS'counter-top'
p1839
I4803
sVhelmeted
p1840
I462
sVslope
p1841
I2165
sS'toiletries'
p1842
I3463
sVwalking
p1843
I252
sVshot
p1844
I1525
sS'cherry'
p1845
I4073
sVshow
p1846
I1526
sVgerman
p1847
I866
sVgoal
p1848
I820
sS'upright'
p1849
I2906
sVbright
p1850
I253
sS'bedside'
p1851
I4766
sVshoe
p1852
I1527
sVcorner
p1853
I1528
sS'data'
p1854
I2547
sVline
p1855
I486
sS'curled'
p1856
I3596
sS'slot'
p1857
I3887
sS'sinks'
p1858
I3978
sVsnack
p1859
I868
sVhandlebars
p1860
I2282
sS'nectarine'
p1861
I4158
sS'brige'
p1862
I3592
sS'chandlier'
p1863
I4888
sS'stained'
p1864
I3129
sS'gull'
p1865
I3812
sV3
I877
sS'texture'
p1866
I4804
sVeither
p1867
I1582
sVonly
p1868
I870
sVwood
p1869
I2166
sVblack
p1870
I1529
sVhockey
p1871
I255
sVpassing
p1872
I1857
sVrobe
p1873
I256
sS'grate'
p1874
I2745
sS'plump'
p1875
I4840
sS'lighted'
p1876
I2734
sS'hippo'
p1877
I3790
sVexplosion
p1878
I790
sS'paperback'
p1879
I4875
sS'windowed'
p1880
I3114
sS'cannon'
p1881
I3707
sVbetween
p1882
I879
sVbegging
p1883
I2167
sS'balconies'
p1884
I2629
sVwheelie
p1885
I257
sS'conrete'
p1886
I4525
sS'outlet'
p1887
I2557
sVchews
p1888
I1539
sS'dye'
p1889
I4203
sS'hedge'
p1890
I3166
sVenjoys
p1891
I1534
sS'closure'
p1892
I4714
sS'redken'
p1893
I5005
sVskull
p1894
I1094
sS'bodka'
p1895
I3989
sS'settings'
p1896
I2852
sVleather
p1897
I872
sS'hinges'
p1898
I2761
sS'median'
p1899
I3339
sVchecks
p1900
I1540
sVnaked
p1901
I2168
sVskyline
p1902
I258
sS'priest'
p1903
I3975
sVclowns
p1904
I2169
sVsnowsuit
p1905
I259
sVweeds
p1906
I395
sS'dough'
p1907
I3962
sS'tortilla'
p1908
I2987
sVwhere
p1909
I260
sVhikers
p1910
I1427
sS'darjeeling'
p1911
I3227
sVpicnic
p1912
I2214
sVconcert
p1913
I873
sS'doorhandle'
p1914
I4445
sS'dollhouse'
p1915
I4133
sVends
p1916
I584
sVflaming
p1917
I1076
sVblurred
p1918
I1515
sS'anchored'
p1919
I3715
sVcheckered
p1920
I266
sVasleep
p1921
I874
sVparking
p1922
I2171
sS'keish'
p1923
I4896
sS'calendar'
p1924
I3460
sVsport
p1925
I875
sVdives
p1926
I261
sVdiver
p1927
I262
sS"cat's"
p1928
I3839
sS'backboard'
p1929
I4752
sS'trough'
p1930
I3134
sVvertical
p1931
I267
sVcamping
p1932
I1538
sS'crystal'
p1933
I4241
sS'ways'
p1934
I4755
sVjumped
p1935
I263
sVopening
p1936
I2479
sS'label'
p1937
I2840
sS'colours'
p1938
I2691
sS'coomputer'
p1939
I4939
sVbehind
p1940
I461
sS'ink'
p1941
I3283
sVskyscraper
p1942
I878
sS'diamonds'
p1943
I4801
sVnavigates
p1944
I264
sS'geometric'
p1945
I3890
sVreading
p1946
I1535
sS'theright'
p1947
I4308
sVjumper
p1948
I265
sVdried
p1949
I2096
sS'infrastructure'
p1950
I4665
sVparent
p1951
I1541
sS'slingshot'
p1952
I3304
sS'faded'
p1953
I2710
sS'dome'
p1954
I3823
sVguitar
p1955
I2174
sS'spare'
p1956
I3154
sS'diners'
p1957
I3969
sVtub
p1958
I1542
sS'comb'
p1959
I4954
sVcome
p1960
I2175
sVtug
p1961
I1543
sVmans
p1962
I269
sVrugby
p1963
I1544
sVmany
p1964
I270
sVcars
p1965
I842
sS"o'donnell"
p1966
I4539
sVskiiers
p1967
I1454
sS'lening'
p1968
I4976
sS'restroom'
p1969
I3872
sS'tour'
p1970
I5028
sVroof
p1971
I1299
sS'charecter'
p1972
I4710
sVwheels
p1973
I880
sVexpression
p1974
I272
sVcomes
p1975
I881
sVnearby
p1976
I882
sVamong
p1977
I1546
sVstretches
p1978
I1547
sS'drawer'
p1979
I2573
sVfencers
p1980
I883
sS'passenger'
p1981
I3340
sVcolor
p1982
I2176
sS'armchair'
p1983
I3309
sVpot
p1984
I2177
sVjeans
p1985
I884
sS'trio'
p1986
I4893
sVpop
p1987
I2178
sS'pilings'
p1988
I4747
sS'maintained'
p1989
I3378
sS'curtains'
p1990
I2559
sVstretched
p1991
I1548
sVpacifier
p1992
I1549
sVpolo
p1993
I2180
sVaerial
p1994
I489
sS'pod'
p1995
I4579
sS'twig'
p1996
I3894
sVpigtails
p1997
I885
sVsledding
p1998
I886
sVadults
p1999
I1096
sS'tulip'
p2000
I4592
sS'unopened'
p2001
I4894
sVcycling
p2002
I887
sS'details'
p2003
I3052
sVteddy
p2004
I274
sVstretch
p2005
I275
sVsoars
p2006
I2385
sS'airlines'
p2007
I3864
sS'layer'
p2008
I5096
sS'mark'
p2009
I2949
sVtropical
p2010
I888
sS'workshop'
p2011
I4260
sS'perosn'
p2012
I4299
sS'shakers'
p2013
I2848
sVreflective
p2014
I276
sS'featuring'
p2015
I3689
sVcrosswalk
p2016
I439
sS'pedastle'
p2017
I4883
sS'finial'
p2018
I3025
sS'foil'
p2019
I2874
sS'engine'
p2020
I3571
sVgeyser
p2021
I1551
sVdirection
p2022
I2184
sS'lanes'
p2023
I3751
sS'armless'
p2024
I2964
sS'juts'
p2025
I4119
sS'planted'
p2026
I3234
sVreaching
p2027
I1237
sVtiger
p2028
I2185
sVphotos
p2029
I277
sS'stovetop'
p2030
I4905
sVcovers
p2031
I1433
sVrubs
p2032
I889
sS'stems'
p2033
I4344
sVfoggy
p2034
I890
sVbmx
p2035
I1553
sVskiers
p2036
I891
sVparasail
p2037
I278
sS'pilot'
p2038
I3569
sVcase
p2039
I348
sS'shaft'
p2040
I3172
sS'stacked'
p2041
I2970
sVfolding
p2042
I1702
sS'wineglasses'
p2043
I2853
sVspiderman
p2044
I2186
sS'twigs'
p2045
I3992
sS'zippered'
p2046
I2776
sVtrick
p2047
I893
sVcast
p2048
I2187
sVcanoes
p2049
I279
sS'tailights'
p2050
I3759
sS'coca'
p2051
I3321
sS'-rock'
p2052
I4120
sVnewspaper
p2053
I280
sS'investigating'
p2054
I4078
sVmound
p2055
I636
sS"person's"
p2056
I3575
sS'slippers'
p2057
I4029
sVvest
p2058
I2189
sVcanoe
p2059
I281
sS'soil'
p2060
I3938
sVinflatable
p2061
I894
sVpurse
p2062
I282
sVtelephone
p2063
I2190
sVsleeping
p2064
I1556
sVcouples
p2065
I2191
sVmiddle
p2066
I1557
sS'unit'
p2067
I3271
sVgood
p2068
I1654
sVembrace
p2069
I895
sVheels
p2070
I896
sVwaterway
p2071
I897
sS'property'
p2072
I3142
sS'stickers'
p2073
I3265
sVfloating
p2074
I1435
sVhelmet
p2075
I2193
sVdifferent
p2076
I1559
sVcafe
p2077
I283
sS'projector'
p2078
I2705
sS'doctor'
p2079
I4113
sS'pay'
p2080
I2735
sS'fender'
p2081
I3841
sVbumpy
p2082
I226
sVmulticolor
p2083
I1545
sVsame
p2084
I1562
sVfeather
p2085
I592
sVclimber
p2086
I18
sVpad
p2087
I1563
sVgreyhounds
p2088
I1564
sS'document'
p2089
I3740
sS'thee'
p2090
I3165
sVpan
p2091
I1565
sS'mane'
p2092
I2912
sS'numerals'
p2093
I3179
sS'oil'
p2094
I3504
sVbarefoot
p2095
I2196
sS'booths'
p2096
I5045
sS'closest'
p2097
I4266
sVrainbow
p2098
I2387
sS'commode'
p2099
I4810
sVfoam
p2100
I900
sVseagulls
p2101
I1667
sS'marking'
p2102
I3183
sVcollide
p2103
I679
sVcheers
p2104
I284
sS'persons'
p2105
I4070
sVrunning
p2106
I1567
sVsnowbank
p2107
I285
sS'barber'
p2108
I4680
sVmerry
p2109
I1199
sVadvertisement
p2110
I286
sVclimbing
p2111
I1568
sS'cartoon'
p2112
I3883
sS'booster'
p2113
I2980
sVmohawk
p2114
I287
sVdrain
p2115
I1569
sVtheater
p2116
I902
sS'handel'
p2117
I4472
sVbagpipes
p2118
I903
sVsideways
p2119
I1503
sS'ranch'
p2120
I4321
sVsnowball
p2121
I394
sVwithout
p2122
I2201
sS'flakes'
p2123
I3820
sVjersey
p2124
I1203
sVbottle
p2125
I1571
sVpitbull
p2126
I904
sVmasks
p2127
I2436
sVsnowboards
p2128
I1111
sS'modem'
p2129
I2876
sS'taxi'
p2130
I2716
sVsummer
p2131
I289
sS'desolate'
p2132
I4374
sS'scarred'
p2133
I4257
sVchased
p2134
I1829
sVbeing
p2135
I291
sVclings
p2136
I1437
sVdancers
p2137
I906
sVneon
p2138
I907
sVrest
p2139
I292
sS'three-prong'
p2140
I4868
sS'imprint'
p2141
I3410
sS'topped'
p2142
I3619
sVgated
p2143
I1574
sVninja
p2144
I991
sVtouch
p2145
I909
sVspeed
p2146
I910
sVkneeling
p2147
I2204
sS'capris'
p2148
I3874
sS'halfway'
p2149
I4001
sVblow
p2150
I2205
sS'ironwork'
p2151
I4632
sVfiring
p2152
I2375
sVsnowboarder
p2153
I911
sS'shingled'
p2154
I4847
sS'womans'
p2155
I3785
sS'rose'
p2156
I3415
sVsunshade
p2157
I912
sS'mirrored'
p2158
I2883
sS'desktop'
p2159
I2549
sVbeagle
p2160
I1575
sS'shingles'
p2161
I3450
sS'shrine'
p2162
I4673
sVpile
p2163
I1576
sV4
I1712
sS'impressive'
p2164
I3828
sVhind
p2165
I2206
sS'headboard'
p2166
I2884
sVskies
p2167
I295
sVskier
p2168
I296
sS'kingdom'
p2169
I2901
sS'carpeting'
p2170
I3438
sS'code'
p2171
I3532
sVread
p2172
I914
sS'hunched'
p2173
I3787
sS'specimen'
p2174
I4365
sVpapers
p2175
I2080
sS'fridge'
p2176
I2681
sS'stools'
p2177
I4188
sS'skylights'
p2178
I4816
sVsumo
p2179
I298
sS'scroll'
p2180
I4302
sVchainsaw
p2181
I1577
sVoverlooks
p2182
I915
sVtraffic
p2183
I299
sVlistening
p2184
I916
sS'ramshackle'
p2185
I2642
sVstunt
p2186
I917
sVrailroad
p2187
I1579
sS'postal'
p2188
I5068
sVlady
p2189
I918
sVrear
p2190
I919
sS'crossbody'
p2191
I5065
sS'clam'
p2192
I4940
sVtowel
p2193
I2208
sS'intel'
p2194
I4587
sVphotographs
p2195
I812
sS'erosion'
p2196
I5081
sVclad
p2197
I301
sVbracelet
p2198
I2209
sS'twin'
p2199
I4006
sS'latters'
p2200
I3348
sVaudience
p2201
I1581
sVt
I920
sS'clay'
p2202
I3659
sS'everyone'
p2203
I3240
sS'downward'
p2204
I3913
sS'tart'
p2205
I3948
sS'utinsils'
p2206
I2978
sS'auditorium'
p2207
I3005
sS'buidling'
p2208
I3204
sS'twelve'
p2209
I3882
sVseating
p2210
I302
sS'chimes'
p2211
I4688
sS'turck'
p2212
I4444
sVdoll
p2213
I1583
sS'sidwalk'
p2214
I4224
sS'convertable'
p2215
I4503
sS'tannish'
p2216
I4292
sVcompetition
p2217
I2210
sS'cushions'
p2218
I3150
sS'fixing'
p2219
I3964
sS'erase'
p2220
I3210
sS'skybox'
p2221
I3115
sS'cabs'
p2222
I4972
sVmatching
p2223
I1584
sS'landline'
p2224
I4492
sS'slice'
p2225
I2845
sS'garland'
p2226
I4052
sS'tote'
p2227
I3554
sVstrewn
p2228
I108
sVtube
p2229
I304
sVstops
p2230
I2212
sS'nook'
p2231
I4845
sS'exit'
p2232
I3315
sVboat
p2233
I273
sS'pipes'
p2234
I3193
sVpaddling
p2235
I429
sS'forks'
p2236
I2838
sS'linoleum'
p2237
I4258
sVknife
p2238
I1585
sS'ovens'
p2239
I4907
sS'diced'
p2240
I3075
sS'eiffel'
p2241
I3009
sVbusiness
p2242
I921
sVraincoat
p2243
I1586
sS'beached'
p2244
I2645
sS'nails'
p2245
I3622
sVarts
p2246
I1550
sS'kleenex'
p2247
I2657
sS'stenciling'
p2248
I2827
sS'awing'
p2249
I3760
sS'bedfront'
p2250
I2886
sVincline
p2251
I2424
sVsniffs
p2252
I922
sS'skyscaper'
p2253
I5082
sVteammate
p2254
I2181
sS'roaming'
p2255
I5118
sS'intricated'
p2256
I4930
sVthrow
p2257
I923
sS'slatted'
p2258
I3997
sVwades
p2259
I2213
sVstone
p2260
I306
sS'placard'
p2261
I3452
sVmuzzle
p2262
I1922
sS'package'
p2263
I3517
sVjeep
p2264
I2215
sVpaints
p2265
I924
sVswimmer
p2266
I1863
sVdrag
p2267
I1102
sS'mixer'
p2268
I2696
sS'shrimp'
p2269
I2835
sVemerges
p2270
I1258
sVher
p2271
I315
sVstand
p2272
I2217
sS'pockets'
p2273
I2643
sVact
p2274
I308
sS'roudn'
p2275
I2825
sS'os'
p2276
I3865
sVor
p2277
I2218
sVroad
p2278
I1591
sS'painte'
p2279
I3574
sS'heater'
p2280
I3097
sVladies
p2281
I2219
sVlands
p2282
I1592
sS'curling'
p2283
I3583
sVburning
p2284
I309
sVinstruments
p2285
I2220
sVimage
p2286
I310
sVgarb
p2287
I2221
sS'chunks'
p2288
I4038
sVlegged
p2289
I311
sVfishes
p2290
I312
sVharness
p2291
I1593
sS'rising'
p2292
I5062
sS'lively'
p2293
I4860
sVhomeless
p2294
I1817
sVstrip
p2295
I1594
sVwade
p2296
I313
sS'skillet'
p2297
I4289
sVtelescope
p2298
I39
sVstare
p2299
I925
sS'grates'
p2300
I4447
sVlog
p2301
I926
sVprepare
p2302
I927
sVarea
p2303
I928
sS'bristles'
p2304
I4904
sS'hoarding'
p2305
I5079
sVthere
p2306
I2222
sS'sloped'
p2307
I5032
sVsides
p2308
I492
sVstart
p2309
I929
sVcats
p2310
I930
sS'lions'
p2311
I3003
sVlow
p2312
I931
sVlot
p2313
I932
sS'cloths'
p2314
I3405
sVslopes
p2315
I316
sVvalley
p2316
I2223
sVbubble
p2317
I317
sS'materials'
p2318
I3791
sS'bristled'
p2319
I4906
sS'trey'
p2320
I2991
sS'gurnee'
p2321
I4185
sS'flat-screen'
p2322
I4005
sS'drains'
p2323
I3200
sS'cabines'
p2324
I4600
sVgliding
p2325
I318
sVpitcher
p2326
I933
sVtripod
p2327
I1596
sVgymnasium
p2328
I1975
sS"lady's"
p2329
I2878
sS'metalic'
p2330
I4416
sS'staircases'
p2331
I5047
sVbowls
p2332
I42
sS'cycle'
p2333
I4662
sVwalkway
p2334
I1597
sS'e'
I3111
sS'blueish'
p2335
I4878
sVwith
p2336
I319
sS'desklamp'
p2337
I4949
sS'toned'
p2338
I3030
sS'arranged'
p2339
I2692
sVstrollers
p2340
I935
sS'embedded'
p2341
I3869
sVbucket
p2342
I936
sS'vhs'
p2343
I2762
sS'strawberry'
p2344
I2831
sS'jewlery'
p2345
I4028
sVpeeking
p2346
I1598
sVdirty
p2347
I321
sS'tones'
p2348
I4937
sS'suitcase'
p2349
I3876
sVsite
p2350
I595
sVreflection
p2351
I1219
sVgrass
p2352
I2225
sS'torso'
p2353
I3614
sS'powerless'
p2354
I3733
sVtutus
p2355
I937
sS'darker'
p2356
I2779
sVwrestlers
p2357
I938
sVtoilet
p2358
I2226
sS'ac'
p2359
I3806
sVvehicles
p2360
I1769
sS'multi-story'
p2361
I4376
sS'ad'
p2362
I3561
sVrapids
p2363
I1599
sS'yacht'
p2364
I3716
sVpole
p2365
I2179
sVparasailing
p2366
I2450
sVdeer
p2367
I1600
sVwatches
p2368
I322
sS'trickles'
p2369
I5095
sS'ripple'
p2370
I2732
sVas
p2371
I324
sS'daily'
p2372
I3366
sS'file'
p2373
I2556
sS'cathedral'
p2374
I5006
sVwatched
p2375
I327
sS'pedestal'
p2376
I3164
sVhound
p2377
I1603
sS'cables'
p2378
I2565
sS'attatched'
p2379
I4692
sVice
p2380
I2059
sS'factory'
p2381
I4249
sVsmiling
p2382
I390
sS'cabinets'
p2383
I2666
sS'verizon'
p2384
I4981
sS'antenna'
p2385
I3553
sS'bicycling'
p2386
I4606
sS'flowerbox'
p2387
I3235
sS'drivers'
p2388
I4516
sVbackstroke
p2389
I940
sVswords
p2390
I2227
sVredheaded
p2391
I2122
sS'crack'
p2392
I2614
sVrubber
p2393
I2228
sVtight
p2394
I330
sS'multi-level'
p2395
I3835
sS'nasa'
p2396
I3861
sV5
I2229
sVunderwater
p2397
I2230
sS'breakfast'
p2398
I4326
sVeight
p2399
I1836
sVyou
p2400
I942
sVpuppy
p2401
I332
sS'houseboat'
p2402
I3940
sVmotorcyclists
p2403
I333
sS'polar'
p2404
I4233
sS'pillows'
p2405
I2982
sVstudents
p2406
I1606
sS'airplanes'
p2407
I3568
sS'symbol'
p2408
I3685
sVartist
p2409
I1496
sVmidair
p2410
I2232
sS'carpenter'
p2411
I4442
sS'terra'
p2412
I3994
sVwaving
p2413
I334
sS'herbs'
p2414
I4933
sS'podium'
p2415
I3929
sS'flattened'
p2416
I4011
sVpeak
p2417
I943
sS'mirrow'
p2418
I4771
sVtackle
p2419
I1607
sVdecorated
p2420
I1608
sS'pillowcase'
p2421
I3499
sS'prongs'
p2422
I3021
sVpool
p2423
I944
sVbuilding
p2424
I945
sS'centerpiece'
p2425
I4814
sS'remote'
p2426
I2726
sS'chords'
p2427
I4547
sVcasts
p2428
I1609
sVtricks
p2429
I335
sVgroom
p2430
I336
sVmask
p2431
I337
sVdyed
p2432
I338
sVhello
p2433
I339
sVseat
p2434
I1536
sS'webbed'
p2435
I3605
sS'directors'
p2436
I3489
sS'sewer'
p2437
I3375
sS'rimmed'
p2438
I4303
sS'wondpw'
p2439
I3558
sVembracing
p2440
I946
sS'directory'
p2441
I4716
sVpeeks
p2442
I2234
sS'platter'
p2443
I2896
sS'tanned'
p2444
I3564
sVstrings
p2445
I947
sS'bmw'
p2446
I3537
sVgrowling
p2447
I1612
sVall
p2448
I643
sVmotocross
p2449
I340
sVskeleton
p2450
I948
sVpointing
p2451
I949
sS'peacock'
p2452
I3815
sVsuburban
p2453
I1613
sS'cresting'
p2454
I5101
sVdollar
p2455
I1614
sS'seals'
p2456
I3608
sS'spacecraft'
p2457
I3859
sS'debris'
p2458
I3662
sS'teapot'
p2459
I2894
sVsmoking
p2460
I1209
sVtalks
p2461
I1615
sVfollow
p2462
I2237
sS'fixtures'
p2463
I3028
sVdisk
p2464
I2238
sVreligious
p2465
I651
sVchildren
p2466
I1616
sS'operson'
p2467
I4269
sVequipment
p2468
I862
sS'blueberries'
p2469
I3949
sS'hunting'
p2470
I3603
sVgymnast
p2471
I952
sVlining
p2472
I2240
sS'weed'
p2473
I3578
sS'squirrels'
p2474
I3737
sS'cobblestones'
p2475
I3546
sVto
p2476
I343
sVtail
p2477
I344
sVchewing
p2478
I345
sS'dressing'
p2479
I4320
sVsmile
p2480
I346
sVenjoying
p2481
I1617
sS'presentation'
p2482
I4645
sS'crinkled'
p2483
I4529
sS'roadway'
p2484
I2631
sS'sound'
p2485
I2986
sS'fax'
p2486
I4275
sVwoman
p2487
I2241
sVsong
p2488
I2242
sVvery
p2489
I954
sS'wad'
p2490
I4594
sVpeaks
p2491
I2040
sS'puffy'
p2492
I3684
sVrobes
p2493
I955
sVfat
p2494
I2245
sVplaid
p2495
I1871
sVfan
p2496
I2246
sVfall
p2497
I1618
sVgrinding
p2498
I1235
sS'crumb'
p2499
I3597
sVbubbles
p2500
I677
sS'drop-off'
p2501
I4737
sVenter
p2502
I1969
sS'railingon'
p2503
I4633
sS'condition'
p2504
I2747
sVsquirted
p2505
I1619
sS'switches'
p2506
I4170
sS'washing'
p2507
I2908
sS'cable'
p2508
I2587
sVcrocodile
p2509
I165
sS'lawnmower'
p2510
I4456
sS'towers'
p2511
I2590
sVlaying
p2512
I349
sS'cascading'
p2513
I4159
sS'grandfather'
p2514
I4921
sVtrench
p2515
I2248
sS'dinosaur'
p2516
I4174
sVsand
p2517
I351
sS'mile'
p2518
I3633
sVjockeys
p2519
I1787
sVsmall
p2520
I352
sS'mammal'
p2521
I4264
sS'wares'
p2522
I4974
sS'cookies'
p2523
I4897
sVneighborhood
p2524
I1620
sS'portable'
p2525
I4290
sVfence
p2526
I957
sS'lgiht'
p2527
I3731
sVstreets
p2528
I958
sS'built-in'
p2529
I4936
sVtee
p2530
I2249
sS'jib'
p2531
I4728
sVpast
p2532
I353
sS'burger'
p2533
I3151
sS'carriages'
p2534
I5033
sS'displays'
p2535
I3958
sVpass
p2536
I354
sS'hamper'
p2537
I4884
sVribbon
p2538
I1622
sVcrouched
p2539
I1666
sS'crosswalks'
p2540
I3185
sVchalk
p2541
I1210
sVwhat
p2542
I2250
sS'adjustment'
p2543
I4471
sS'snow-covered'
p2544
I3863
sS'darkness'
p2545
I3834
sS'clock'
p2546
I2538
sS'rectangles'
p2547
I4648
sS'section'
p2548
I3394
sS'kickstands'
p2549
I4652
sS'crust'
p2550
I3598
sS'burgundy'
p2551
I3786
sVmilk
p2552
I1446
sVsuv
p2553
I2252
sVbackpacker
p2554
I1885
sS'two-paned'
p2555
I4521
sVunicycle
p2556
I961
sVracing
p2557
I2253
sVpublic
p2558
I1624
sS'blck'
p2559
I4977
sVtattoos
p2560
I1625
sVfull
p2561
I355
sS'ruffle'
p2562
I4768
sVleashes
p2563
I632
sVtags
p2564
I2254
sS'loose'
p2565
I4099
sVleaping
p2566
I2022
sVsurfer
p2567
I1626
sS'puddles'
p2568
I3755
sVtracks
p2569
I963
sS'cylindrical'
p2570
I4674
sVoperating
p2571
I1627
sVdune
p2572
I1003
sVtrunk
p2573
I964
sVdirections
p2574
I2255
sVobserving
p2575
I2256
sVshops
p2576
I2188
sS'"blue'
p2577
I2647
sVarena
p2578
I965
sValmost
p2579
I1873
sVcolored
p2580
I966
sVahead
p2581
I967
sS'arranging'
p2582
I4081
sVstretching
p2583
I1629
sS'whine'
p2584
I3318
sS"cab's"
p2585
I3057
sVstorefront
p2586
I1630
sS'drawers'
p2587
I2578
sVairport
p2588
I1631
sVbase
p2589
I1005
sVadvertising
p2590
I969
sVgear
p2591
I1831
sVpick
p2592
I356
sVaction
p2593
I357
sVnarrow
p2594
I1632
sS'brimmed'
p2595
I3361
sVtrainer
p2596
I970
sVfenced
p2597
I1051
sVfollowed
p2598
I358
sS'grapes'
p2599
I2893
sS'adidas'
p2600
I5055
sS'buses'
p2601
I2718
sS'binders'
p2602
I4602
sS'marginal'
p2603
I4478
sS'transit'
p2604
I4975
sS'lottery'
p2605
I4391
sS'vin'
p2606
I4425
sS'puncher'
p2607
I3260
sS'screens'
p2608
I2615
sS'tassels'
p2609
I2803
sS'chunky'
p2610
I3772
sVindoors
p2611
I359
sVtoys
p2612
I972
sVviz
p2613
I360
sS'thatched'
p2614
I3660
sS'armed'
p2615
I4019
sVdachshund
p2616
I1634
sS'barked'
p2617
I5088
sVeye
p2618
I1635
sS'sitted'
p2619
I3970
sVridding
p2620
I362
sS'plastered'
p2621
I4148
sVtwo
p2622
I1636
sS'pearl'
p2623
I3519
sS'pinboard'
p2624
I4623
sVsplash
p2625
I1637
sS'inlay'
p2626
I2923
sVpitching
p2627
I364
sV6
I365
sVtaken
p2628
I974
sVraft
p2629
I1638
sS'hatchback'
p2630
I3700
sVrubbing
p2631
I1554
sS'printer'
p2632
I2623
sVmore
p2633
I366
sVhorses
p2634
I2259
sVflat
p2635
I2260
sS'diamond'
p2636
I3691
sVdoor
p2637
I368
sS'flap'
p2638
I4789
sS'shrubbery'
p2639
I3187
sS'alcove'
p2640
I3798
sS'signpost'
p2641
I4378
sS'company'
p2642
I4403
sS'tusk'
p2643
I4202
sVowners
p2644
I402
sS'chopstick'
p2645
I4334
sS'mulchy'
p2646
I3845
sS'cruved'
p2647
I4090
sVstick
p2648
I2264
sS'lemons'
p2649
I3355
sS'varying'
p2650
I3513
sS'flan'
p2651
I5015
sS'riverbank'
p2652
I2915
sVtown
p2653
I1640
sS'grill'
p2654
I3250
sS'fleece'
p2655
I3289
sVgravel
p2656
I370
sS'hour'
p2657
I4237
sS'cluster'
p2658
I3793
sVsleeveless
p2659
I2265
sVboy
p2660
I1460
sS'created'
p2661
I4729
sS'jack-o-lantern'
p2662
I3254
sVmall
p2663
I371
sS'nine'
p2664
I3251
sVwrestler
p2665
I2267
sS'v'
I3810
sS'clutter'
p2666
I2687
sVseagull
p2667
I2104
sVmale
p2668
I372
sS'ashtray'
p2669
I3761
sVmarble
p2670
I1641
sS'evian'
p2671
I3411
sVbeautiful
p2672
I373
sVcarriage
p2673
I1250
sVready
p2674
I1067
sS'computers'
p2675
I2796
sVpony
p2676
I2269
sVchallenging
p2677
I2270
sVpushes
p2678
I975
sVcampsite
p2679
I374
sS'bidet'
p2680
I4794
sVshare
p2681
I1643
sS'stocked'
p2682
I4191
sS'm'
I5069
sS'states'
p2683
I2900
sVpushed
p2684
I976
sS'onthe'
p2685
I4885
sVnumbers
p2686
I1644
sS'celing'
p2687
I3880
sVcows
p2688
I977
sS'gallon'
p2689
I2694
sS'pong'
p2690
I4094
sS'scar'
p2691
I3641
sVdress
p2692
I376
sS'tapestry'
p2693
I3472
sS'extinguisher'
p2694
I4138
sS'beef'
p2695
I3981
sVcourt
p2696
I2272
sVbackpacking
p2697
I2273
sVrelaxes
p2698
I487
sS'khakis'
p2699
I4643
sS'receptacle'
p2700
I4247
sVbreaking
p2701
I2274
sS'ivy'
p2702
I2913
sS'drainer'
p2703
I2653
sS'menus'
p2704
I4060
sS'glowing'
p2705
I2782
sS'venting'
p2706
I4135
sS'freshly'
p2707
I3081
sVspeeding
p2708
I2275
sVbefore
p2709
I1312
sS'browns'
p2710
I4901
sVgoat
p2711
I2276
sVcreature
p2712
I379
sS'side-view'
p2713
I4424
sVplant
p2714
I380
sS'sandwich'
p2715
I3016
sVindian
p2716
I507
sS'communicating'
p2717
I3824
sS'headrest'
p2718
I2981
sS'florescent'
p2719
I4048
sS'daisy'
p2720
I4084
sS'brownie'
p2721
I4325
sS'holders'
p2722
I4684
sS'catalog'
p2723
I4345
sVplane
p2724
I382
sVlighting
p2725
I2277
sS'streetlamp'
p2726
I4515
sVsoftball
p2727
I2278
sVbackyard
p2728
I384
sVhorizontal
p2729
I981
sVwave
p2730
I1109
sS'concentrating'
p2731
I3040
sVplank
p2732
I385
sVfrisbee
p2733
I638
sVa
I982
sS'mowing'
p2734
I3905
sS'workstation'
p2735
I4932
sVshort
p2736
I2279
sS'susan'
p2737
I3388
sVcoat
p2738
I1648
sS'shady'
p2739
I3846
sS'register'
p2740
I4104
sVeats
p2741
I1649
sVvolleyball
p2742
I386
sS'dragon'
p2743
I3496
sS'upholstered'
p2744
I3246
sVshore
p2745
I2280
sVchopsticks
p2746
I984
sVshade
p2747
I2281
sVinline
p2748
I985
sS'dream'
p2749
I3908
sVplaying
p2750
I1650
sVpatio
p2751
I387
sS'turnover'
p2752
I3954
sS'corrugated'
p2753
I3073
sVinfant
p2754
I1651
sS'mexican'
p2755
I3748
sVhelp
p2756
I986
sS'gauges'
p2757
I4700
sS'pant'
p2758
I4989
sS'stains'
p2759
I4306
sVwoodland
p2760
I1561
sS'doorknob'
p2761
I2763
sS'mission'
p2762
I3857
sVcyclists
p2763
I987
sS'installed'
p2764
I4023
sVheld
p2765
I988
sS'spices'
p2766
I3067
sVpaper
p2767
I388
sVthrough
p2768
I1652
sVstaring
p2769
I586
sS'pane'
p2770
I3386
sVsigns
p2771
I389
sS'helm'
p2772
I4725
sVgesture
p2773
I1486
sS'haging'
p2774
I4004
sVpolicemen
p2775
I2266
sVpractice
p2776
I2448
sVits
p2777
I391
sS'clump'
p2778
I5086
sS'top-shelf'
p2779
I3985
sS'cauliflower'
p2780
I2770
sS'drapes'
p2781
I3416
sVstyle
p2782
I2283
sVlicks
p2783
I392
sS'pens'
p2784
I4469
sVcarpeted
p2785
I989
sS'call'
p2786
I4473
sS'houseplant'
p2787
I4490
sS'sale'
p2788
I2929
sS'mattress'
p2789
I3778
sVresort
p2790
I2284
sVbows
p2791
I2195
sS'laces'
p2792
I4208
sVoriental
p2793
I1821
sS'selection'
p2794
I3671
sS'cubies'
p2795
I4127
sS'mounted'
p2796
I2622
sVsoccer
p2797
I2285
sS'sauce'
p2798
I2990
sVcrawls
p2799
I1653
sVsomeone
p2800
I2192
sS'return'
p2801
I4035
sVsucking
p2802
I2286
sVfood
p2803
I990
sVmales
p2804
I1655
sS'redbox'
p2805
I4731
sVnumber
p2806
I403
sS'units'
p2807
I2748
sVwalls
p2808
I1656
sS'starbucks'
p2809
I3566
sS'iridescent'
p2810
I4432
sS'compound'
p2811
I4821
sVfoot
p2812
I908
sVclouds
p2813
I2090
sVbigger
p2814
I2287
sS'instructions'
p2815
I4415
sS'stopper'
p2816
I3420
sS'glaring'
p2817
I3775
sVshop
p2818
I1524
sS'pregnant'
p2819
I3789
sS'fully'
p2820
I3059
sS'cubicles'
p2821
I4056
sVkayaking
p2822
I992
sS'loosely'
p2823
I4272
sVswimsuit
p2824
I396
sS'ashes'
p2825
I4355
sS'piping'
p2826
I3457
sVstopped
p2827
I993
sVsnowboarders
p2828
I2288
sS'dominating'
p2829
I4557
sVfairy
p2830
I994
sVbutton
p2831
I1112
sS'trailer'
p2832
I4234
sS'lantern'
p2833
I3103
sVheavy
p2834
I995
sVinjured
p2835
I1875
sS'clams'
p2836
I4941
sS'tilted'
p2837
I4213
sVbends
p2838
I398
sS'exhaust'
p2839
I3192
sVhouse
p2840
I1658
sVfish
p2841
I1659
sVhard
p2842
I1660
sS'fixture'
p2843
I3242
sS"pc's"
p2844
I4463
sVpoodle
p2845
I363
sVgun
p2846
I2289
sS'wires'
p2847
I2621
sS'gum'
p2848
I4043
sVfist
p2849
I1661
sS'scratching'
p2850
I4830
sS'blues'
p2851
I3035
sS'inflated'
p2852
I4367
sVbackpacks
p2853
I1662
sVevent
p2854
I997
sVsubway
p2855
I174
sVreally
p2856
I399
sS'globular'
p2857
I4123
sVbikers
p2858
I1450
sVflower
p2859
I1663
sVgnawing
p2860
I2487
sS'p'
I3344
sS'hoof'
p2861
I3616
sVsurrounded
p2862
I999
sS'pigeon'
p2863
I4278
sS'wadded'
p2864
I4366
sS'planes'
p2865
I3570
sVsafety
p2866
I1000
sVhill
p2867
I2290
sVprint
p2868
I1664
sS'aligned'
p2869
I4745
sS'hangers'
p2870
I4244
sS'caucasian'
p2871
I4732
sVhighway
p2872
I400
sS'slouching'
p2873
I4075
sVforeground
p2874
I1665
sVbald
p2875
I1001
sVguitars
p2876
I785
sVdirt
p2877
I1002
sS'roofs'
p2878
I3600
sVdriver
p2879
I2197
sS'porcelain'
p2880
I2836
sS'steeple'
p2881
I3083
sVhorse
p2882
I1011
sS'pub'
p2883
I3374
sVbulls
p2884
I1668
sS'cockpit'
p2885
I3771
sVhouses
p2886
I1004
sVcrouches
p2887
I1669
sS'unbrellas'
p2888
I4631
sS'conditioning'
p2889
I3427
sVmembers
p2890
I1670
sVput
p2891
I1006
sS'canon'
p2892
I3701
sS'rises'
p2893
I5103
sVbeginning
p2894
I1671
sVguy
p2895
I2291
sS'hedging'
p2896
I3816
sVbushes
p2897
I1305
sVdriven
p2898
I2199
sVpairs
p2899
I2262
sVchoppy
p2900
I1777
sVpicture
p2901
I2082
sS'garment'
p2902
I4679
sS'loaf'
p2903
I4143
sS"woman's"
p2904
I2628
sVrollerblader
p2905
I2293
sVrollerblades
p2906
I2294
sVrack
p2907
I504
sS'"bus'
p2908
I4991
sVcheering
p2909
I1007
sVamerican
p2910
I1008
sS'edges'
p2911
I2689
sVdribbles
p2912
I1672
sVcircuit
p2913
I2295
sS'bumper'
p2914
I3732
sS'corkscrew'
p2915
I3506
sS'wired'
p2916
I3231
sS'castle'
p2917
I4296
sVfallen
p2918
I2297
sVthrows
p2919
I2298
sS'biege'
p2920
I3850
sS'petdal'
p2921
I3764
sS'skin'
p2922
I2823
sVstatue
p2923
I2200
sVjogs
p2924
I1673
sS'urinal'
p2925
I3306
sS'welcome'
p2926
I4925
sVfeet
p2927
I2300
sVdust
p2928
I603
sS'sarf'
p2929
I3852
sVgazes
p2930
I404
sS'done'
p2931
I4854
sS'least'
p2932
I4998
sS'blank'
p2933
I4464
sVhelicopter
p2934
I2182
sVcups
p2935
I1674
sVrail
p2936
I1981
sVoveralls
p2937
I604
sS'maple'
p2938
I2797
sS'grey-blue'
p2939
I4734
sVpasses
p2940
I2301
sS'story'
p2941
I2867
sVheads
p2942
I405
sVjet
p2943
I406
sS'twenty'
p2944
I4419
sVinteract
p2945
I2303
sS'grime'
p2946
I4253
sVshooting
p2947
I1910
sS'jetty'
p2948
I4730
sVrails
p2949
I1010
sS'shelves'
p2950
I2815
sS'pinned'
p2951
I3924
sVpaint
p2952
I1675
sVleash
p2953
I1676
sVstation
p2954
I1013
sS'build-a-bear'
p2955
I5004
sVstorm
p2956
I1016
sS'fingernail'
p2957
I4372
sVsprinkler
p2958
I1173
sVwrapped
p2959
I1163
sS'nuts'
p2960
I3950
sVmountaintop
p2961
I1175
sVoutcropping
p2962
I2306
sVstore
p2963
I2307
sS'jetta'
p2964
I4434
sVsquirts
p2965
I1014
sVselling
p2966
I1015
sVwarmly
p2967
I408
sS'waterfront'
p2968
I4192
sS'pump'
p2969
I4599
sS'needle'
p2970
I4323
sVpark
p2971
I1678
sVkitchen
p2972
I723
sS'draped'
p2973
I4238
sS'chugging'
p2974
I4370
sVchair
p2975
I169
sVpart
p2976
I1679
sS'signaling'
p2977
I4563
sS'rifle'
p2978
I3511
sS'obstructed'
p2979
I4483
sVracetrack
p2980
I983
sVstairs
p2981
I409
sVuncut
p2982
I2309
sVobama
p2983
I410
sVleotard
p2984
I1017
sVgrocery
p2985
I1018
sS'john'
p2986
I4362
sS'stethescope'
p2987
I3330
sS'tooth'
p2988
I4297
sS'double'
p2989
I2737
sS'plowed'
p2990
I3693
sS'pear'
p2991
I2948
sVgrey
p2992
I1019
sS'banana'
p2993
I3853
sS'colander'
p2994
I4929
sVbride
p2995
I1020
sS"ambulence's"
p2996
I3058
sS'cuff'
p2997
I3328
sS'charger'
p2998
I2586
sS'dispenser'
p2999
I2972
sS'taxis'
p3000
I2711
sVfloaties
p3001
I407
sS'colour'
p3002
I2539
sVdomino
p3003
I1908
sVshirts
p3004
I180
sVmickey
p3005
I1022
sS'cleaner'
p3006
I4097
sVuniforms
p3007
I2314
sS'skyscrapers'
p3008
I3541
sS'accents'
p3009
I4341
sS'sunligh'
p3010
I3131
sS'strung'
p3011
I3681
sValongside
p3012
I1023
sVbarking
p3013
I1881
sVcollars
p3014
I2049
sS'coffee-maker'
p3015
I2749
sS'frito'
p3016
I4966
sVjuice
p3017
I1024
sVgraffiti
p3018
I411
sValike
p3019
I2145
sVblond
p3020
I412
sS'events'
p3021
I3904
sS'hexagonal'
p3022
I4047
sVaged
p3023
I1682
sS'rugs'
p3024
I3477
sS'wipers'
p3025
I3146
sS'lid'
p3026
I2572
sVmountain
p3027
I1683
sS'cardigan'
p3028
I4186
sS'built'
p3029
I2658
sVdancing
p3030
I1684
sS'hatbox'
p3031
I3910
sVpajamas
p3032
I413
sVdoberman
p3033
I414
sVcave
p3034
I1025
sVofficers
p3035
I1026
sVcamouflage
p3036
I1027
sVcouch
p3037
I1685
sVlit
p3038
I1028
sVhappily
p3039
I706
sVlifts
p3040
I1686
sVsquare
p3041
I223
sS'build'
p3042
I3433
sS'townhouses'
p3043
I3189
sS'knobs'
p3044
I2811
sVparachuting
p3045
I181
sVtool
p3046
I1996
sS'transparent'
p3047
I4863
sS'folders'
p3048
I4381
sVplay
p3049
I416
sS'pencils'
p3050
I4922
sS'cemented'
p3051
I4436
sVelectric
p3052
I2315
sS'wallpapered'
p3053
I3094
sS'cargo'
p3054
I3238
sVeggs
p3055
I1687
sVtrains
p3056
I288
sVreach
p3057
I2316
sS'chart'
p3058
I3332
sS'plat'
p3059
I4658
sS'leave'
p3060
I3147
sVcigarette
p3061
I2317
sS'storefronts'
p3062
I3794
sS'plan'
p3063
I2818
sS'eaten'
p3064
I3015
sVposition
p3065
I1030
sS'gilt'
p3066
I4496
sVdigs
p3067
I1333
sVmuzzled
p3068
I1110
sVrefrigerator
p3069
I1689
sVstands
p3070
I2099
sVpatterned
p3071
I2318
sS'breaker'
p3072
I3029
sVstroller
p3073
I1770
sVmobile
p3074
I1031
sVclear
p3075
I1032
sVcover
p3076
I417
sS'dentist'
p3077
I2968
sVdrawing
p3078
I606
sVtraditional
p3079
I2320
sVscantily
p3080
I2369
sS'reflections'
p3081
I2641
sVclean
p3082
I1033
sVbarren
p3083
I418
sVbarrel
p3084
I419
sVbandanna
p3085
I2494
sS'amusements'
p3086
I3899
sS'bulletin'
p3087
I3275
sVhips
p3088
I1034
sVstones
p3089
I2322
sVbending
p3090
I2495
sS'loveseat'
p3091
I4772
sVgolf
p3092
I420
sS'somewhat'
p3093
I5013
sVgold
p3094
I421
sS'gates'
p3095
I3403
sVcowgirl
p3096
I1035
sS'wildebeest'
p3097
I3630
sS'fins'
p3098
I3814
sVleague
p3099
I1053
sS'scattered'
p3100
I3581
sVhotel
p3101
I2308
sS'skyskrper'
p3102
I4509
sVhillside
p3103
I1691
sVsprayed
p3104
I290
sS'businesses'
p3105
I4657
sS'stoned'
p3106
I4500
sVcarefully
p3107
I1692
sVcoaster
p3108
I1036
sS'fine'
p3109
I4312
sS'blender'
p3110
I2997
sS'vodkas'
p3111
I3987
sVcurrent
p3112
I184
sVgiant
p3113
I1693
sS'holeman'
p3114
I4756
sS'dividing'
p3115
I4570
sVwrites
p3116
I422
sS'less'
p3117
I3692
sS'motocycles'
p3118
I3294
sVfruit
p3119
I901
sS'flights'
p3120
I3942
sS'clipboard'
p3121
I3292
sVpoodles
p3122
I423
sVhome
p3123
I1234
sVmoney
p3124
I1573
sV8
I1694
sVcircle
p3125
I1038
sVcords
p3126
I2183
sS'scooted'
p3127
I3338
sS'columns'
p3128
I3138
sS"couch's"
p3129
I3098
sVboulder
p3130
I1695
sS'peaked'
p3131
I4672
sVhis
p3132
I2326
sVhit
p3133
I1137
sS'reflector'
p3134
I2746
sVdandelion
p3135
I425
sVbend
p3136
I2327
sVkilt
p3137
I2203
sVflowing
p3138
I508
sVsunny
p3139
I426
sS'kind'
p3140
I3745
sVtrees
p3141
I1039
sVtoddlers
p3142
I1696
sVrings
p3143
I92
sVinterviews
p3144
I1009
sS'twill'
p3145
I4617
sVpretending
p3146
I1040
sVcompeting
p3147
I1041
sVduring
p3148
I1042
sVfootballers
p3149
I1043
sS'silk'
p3150
I4919
sVbanner
p3151
I428
sS'windshild'
p3152
I3176
sS'chimney'
p3153
I3006
sS'bulletins'
p3154
I4609
sS'writings'
p3155
I2577
sVcatches
p3156
I1044
sVcatcher
p3157
I1045
sS'borders'
p3158
I4702
sS'sleeve'
p3159
I2609
sS'gazebo'
p3160
I3148
sVtracksuit
p3161
I1698
sS'adhering'
p3162
I4560
sS'figurine'
p3163
I3510
sS'racketball'
p3164
I4211
sVnecked
p3165
I2329
sVgloves
p3166
I1047
sS'x'
I3112
sVriver
p3167
I2453
sS'cheese'
p3168
I2996
sS'mouthwash'
p3169
I4783
sVapproaching
p3170
I431
sS'bulky'
p3171
I2756
sVscenery
p3172
I509
sVbars
p3173
I2330
sVset
p3174
I432
sVart
p3175
I1160
sVguys
p3176
I1481
sS'dump'
p3177
I3768
sVthrowing
p3178
I1048
sVcarrying
p3179
I433
sS'vine'
p3180
I4160
sVaround
p3181
I297
sS'entance'
p3182
I3698
sS'lion'
p3183
I3002
sS'individual'
p3184
I3423
sVbare
p3185
I2332
sVtackles
p3186
I1699
sVsea
p3187
I435
sVclose
p3188
I1049
sS'cheerios'
p3189
I2934
sVarm
p3190
I2334
sS'breast'
p3191
I2769
sVbarn
p3192
I2335
sVknees
p3193
I436
sV#
I437
sS'visiting'
p3194
I3830
sS'traffc'
p3195
I4656
sS'burner'
p3196
I4145
sS'unpaved'
p3197
I5090
sS"kid's"
p3198
I3968
sS'plush'
p3199
I2562
sVfans
p3200
I1700
sVstall
p3201
I2311
sVvarious
p3202
I2336
sS'plywood'
p3203
I4430
sS'envelopes'
p3204
I3211
sS'flame'
p3205
I2849
sS'serene'
p3206
I3813
sS'champagne'
p3207
I3518
sS'numerous'
p3208
I5027
sS'black-haired'
p3209
I3875
sS"catcher's"
p3210
I4036
sS'iron'
p3211
I3174
sVdo
p3212
I715
sS'missing'
p3213
I3201
sS'numer'
p3214
I4037
sVs
I271
sS'zipped'
p3215
I3295
sVtricycles
p3216
I1681
sVoutfit
p3217
I2340
sS'wreath'
p3218
I3705
sVspray
p3219
I1052
sVcoffee
p3220
I1555
sS'pepsi'
p3221
I4230
sVpull
p3222
I320
sS'hubcap'
p3223
I3729
sS'striated'
p3224
I5094
sS'pickup'
p3225
I3658
sS'sprinkled'
p3226
I4332
sS'bronze'
p3227
I3562
sVfloats
p3228
I1701
sVboth
p3229
I1207
sS'c'
I3312
sVtoward
p3230
I1021
sS'last'
p3231
I4689
sS'widest'
p3232
I4958
sS'license'
p3233
I2742
sVrestaurant
p3234
I1703
sS'archway'
p3235
I2739
sS'xpect'
p3236
I3280
sS'pavers'
p3237
I2754
sS'roman'
p3238
I3178
sS'alot'
p3239
I3879
sS'multi-colored'
p3240
I4016
sS"planter's"
p3241
I5074
sS'protector'
p3242
I2595
sS'whole'
p3243
I2717
sS'stoplight'
p3244
I3054
sVhikes
p3245
I1919
sVtongues
p3246
I2313
sVflies
p3247
I2341
sVairborne
p3248
I1012
sVpoint
p3249
I1705
sS'simple'
p3250
I4467
sVbags
p3251
I1558
sS'recycling'
p3252
I4584
sS'vent'
p3253
I2764
sVcommunity
p3254
I440
sVleading
p3255
I2302
sVnewborn
p3256
I1706
sVskips
p3257
I1055
sVdances
p3258
I1707
sVbadminton
p3259
I1056
sVclimbers
p3260
I1057
sVvillage
p3261
I2342
sS'townhouse'
p3262
I4705
sS'slots'
p3263
I3885
sS'moisturizer'
p3264
I4152
sS'backend'
p3265
I3100
sS'pallet'
p3266
I3965
sS'illuminted'
p3267
I2922
sVdevil
p3268
I441
sVcream
p3269
I328
sVraise
p3270
I1709
sS'conveyor'
p3271
I3941
sS'stamp'
p3272
I4720
sS'damp'
p3273
I5014
sVoverlook
p3274
I2345
sVbicyclist
p3275
I2172
sS'screened'
p3276
I3032
sVhitting
p3277
I442
sVran
p3278
I2000
sVdropping
p3279
I1710
sS'portraits'
p3280
I4944
sS'collected'
p3281
I3582
sVbrick
p3282
I2346
sS'80on'
p3283
I3683
sVmeeting
p3284
I1711
sVempty
p3285
I1058
sS'veneer'
p3286
I4356
sVresting
p3287
I443
sS'siting'
p3288
I4589
sVsleeved
p3289
I444
sVpartly
p3290
I1059
sVsquirrel
p3291
I445
sS'assorted'
p3292
I3963
sVfire
p3293
I446
sVwheeler
p3294
I447
sS'towne'
p3295
I5018
sS'endtable'
p3296
I4781
sS'anthony'
p3297
I4535
sS'maps'
p3298
I4383
sVracer
p3299
I448
sVraces
p3300
I449
sVsleeves
p3301
I450
sS'date'
p3302
I4030
sS'storied'
p3303
I4411
sS'rocking'
p3304
I3458
sVinstructor
p3305
I2349
sVwheeled
p3306
I730
sVplants
p3307
I2350
sS'handling'
p3308
I3966
sS'coveralls'
p3309
I2868
sVlook
p3310
I1061
sS'grains'
p3311
I3018
sVpedestrian
p3312
I2351
sS'solid'
p3313
I3145
sVski
p3314
I2502
sS'"do'
p3315
I3263
sS'tip'
p3316
I3765
sS'batch'
p3317
I3372
sS'horseshoe'
p3318
I3247
sS'easy-chair'
p3319
I4910
sS'healthy'
p3320
I4859
sVwhile
p3321
I1274
sS'barricade'
p3322
I3525
sVkick
p3323
I1227
sVleaning
p3324
I452
sVfun
p3325
I1716
sS'cruiseline'
p3326
I4837
sS'larry'
p3327
I4537
sS'clouded'
p3328
I3397
sVmoustache
p3329
I2354
sS'loop'
p3330
I2952
sVpack
p3331
I1065
sS'trinkets'
p3332
I2817
sS'casino'
p3333
I3884
sS'strapless'
p3334
I3334
sS'backing'
p3335
I2729
sS'petal'
p3336
I2944
sS'calculator'
p3337
I3780
sS'paino'
p3338
I4927
sS'multi-line'
p3339
I2544
sVsuspended
p3340
I1509
sVleans
p3341
I2355
sVducks
p3342
I454
sS'decoration'
p3343
I3680
sVrollerskating
p3344
I2356
sVobstacle
p3345
I2357
sS'nightstand'
p3346
I2881
sS'calender'
p3347
I4621
sS'clutered'
p3348
I2569
sS'rig'
p3349
I4198
sS'exiting'
p3350
I2740
sS'coca-cola'
p3351
I4550
sS'audi'
p3352
I3934
sVfunny
p3353
I456
sS'decor'
p3354
I4242
sS'desserts'
p3355
I3944
sVshirt
p3356
I1306
sS'fibers'
p3357
I4807
sVfetching
p3358
I457
sS'mint'
p3359
I3229
sS'slab'
p3360
I4122
sVbat
p3361
I1357
sS'leafed'
p3362
I4076
sS'butcher'
p3363
I4154
sVmakeshift
p3364
I1068
sS'grand'
p3365
I2984
sS'9'
I3688
sS'bedframe'
p3366
I4489
sS'composition'
p3367
I2593
sS'sham'
p3368
I4787
sS'windmill'
p3369
I2751
sVhallway
p3370
I1070
sS'used'
p3371
I3675
sS'tupperware'
p3372
I3262
sS'curbside'
p3373
I5007
sS'keys'
p3374
I3282
sVisland
p3375
I1590
sVoverweight
p3376
I1071
sVcement
p3377
I2358
sS'desks'
p3378
I2674
sVplayed
p3379
I112
sVheadfirst
p3380
I979
sS'viewing'
p3381
I3896
sS'levels'
p3382
I4708
sVmoving
p3383
I2359
sVstripe
p3384
I1719
sValong
p3385
I189
sS'plugs'
p3386
I2558
sVsandals
p3387
I1720
sS'stack'
p3388
I2728
sS'culvert'
p3389
I4961
sVlacrosse
p3390
I1721
sVdark
p3391
I1722
sVlower
p3392
I2360
sS'hexagon'
p3393
I3358
sS'glitter'
p3394
I2976
sVolder
p3395
I1074
sVcheek
p3396
I2361
sS'docked'
p3397
I3719
sVcenter
p3398
I1878
sS'shuttles'
p3399
I4685
sVpicks
p3400
I459
sVunderwear
p3401
I1505
sVconcrete
p3402
I64
sVcheer
p3403
I2363
sVedge
p3404
I2364
sS'multi-lane'
p3405
I3232
sS'oneway'
p3406
I4390
sVgrins
p3407
I1344
sS'entry'
p3408
I2917
sS'meat'
p3409
I3007
sS'paneling'
p3410
I3245
sS'hotdog'
p3411
I3535
sS'passed'
p3412
I3345
sS'positioned'
p3413
I3560
sS'eyeglasses'
p3414
I2777
sVmom
p3415
I1578
sS'ruler'
p3416
I4126
sS'red-haired'
p3417
I3090
sS'windown'
p3418
I4067
sVpigeons
p3419
I2365
sS'styled'
p3420
I4209
sS'shape'
p3421
I3257
sS'bedstand'
p3422
I4007
sS'laniard'
p3423
I3069
sS'amp'
p3424
I3930
sS'fourescent'
p3425
I3093
sS'sidebar'
p3426
I4286
sS'forrest'
p3427
I4270
sVapple
p3428
I2413
sS'letting'
p3429
I4222
sVtables
p3430
I2366
sVcut
p3431
I1726
sVhelping
p3432
I2392
sS'goblet'
p3433
I4317
sS'tablet'
p3434
I3258
sVcup
p3435
I1727
sS'blankets'
p3436
I4790
sVworkers
p3437
I2367
sS'percent'
p3438
I3711
sS'bick'
p3439
I4458
sS'signals'
p3440
I3528
sS'cherries'
p3441
I4931
sVparents
p3442
I463
sVkites
p3443
I1728
sVcrying
p3444
I465
sS'cash'
p3445
I4103
sVbridal
p3446
I1729
sVfurniture
p3447
I2207
sVeaster
p3448
I1730
sVexcited
p3449
I1731
sS'sandwiches'
p3450
I4085
sVbin
p3451
I1732
sS'overhanging'
p3452
I4480
sVapartment
p3453
I2239
sVvendor
p3454
I2368
sS'radiator'
p3455
I3092
sVbig
p3456
I1733
sVskateboards
p3457
I466
sS'doorbell'
p3458
I4687
sVbib
p3459
I1734
sS'spires'
p3460
I4671
sVgame
p3461
I1079
sS'baskets'
p3462
I4042
sS'interfaces'
p3463
I4576
sS'vending'
p3464
I3757
sVwings
p3465
I1080
sS"macy's"
p3466
I5064
sVformal
p3467
I1103
sVkayak
p3468
I1466
sS'seperate'
p3469
I4526
sVvests
p3470
I1081
sS'd'
I4561
sS'semi'
p3471
I4457
sVshaped
p3472
I2370
sVpuck
p3473
I1989
sVfollows
p3474
I1735
sS'signal'
p3475
I3050
sS'dstance'
p3476
I4110
sS'toyota'
p3477
I3012
sVglove
p3478
I1736
sS'shapes'
p3479
I3515
sVsleds
p3480
I612
sS'vans'
p3481
I4960
sVindividuals
p3482
I393
sS'moccasins'
p3483
I3478
sS'sleigh'
p3484
I3465
sS'light-colored'
p3485
I4707
sS'bamboo'
p3486
I4282
sS'walrus'
p3487
I3613
sVsprinklers
p3488
I2371
sS'scaffolds'
p3489
I4422
sS'mathematical'
p3490
I4575
sS'grouped'
p3491
I3746
sS'google'
p3492
I3316
sS'fronds'
p3493
I4288
sVparade
p3494
I1422
sS'jeep-type'
p3495
I3836
sS'mauve'
p3496
I3741
sVcheerleader
p3497
I1737
sVsome
p3498
I1084
sS'insulated'
p3499
I3392
sVphone
p3500
I1952
sS'streamers'
p3501
I4969
sS'one-way'
p3502
I3264
sVbouncy
p3503
I470
sVtowards
p3504
I1029
sVpalm
p3505
I471
sS'resin'
p3506
I4277
sS'ornaments'
p3507
I3687
sVmirror
p3508
I1740
sS'cd'
p3509
I2579
sVcandle
p3510
I1741
sVpale
p3511
I472
sS'ontop'
p3512
I4809
sVpreparing
p3513
I427
sS'saucer'
p3514
I2844
sVfacing
p3515
I1580
sS'scale'
p3516
I3590
sVjewelry
p3517
I1742
sVpet
p3518
I1743
sS'spouting'
p3519
I3116
sS'asphaplt'
p3520
I4510
sS'novelty'
p3521
I4379
sVdarkened
p3522
I209
sVpen
p3523
I1744
sVsneakers
p3524
I1745
sS'slash'
p3525
I4089
sS'ornate'
p3526
I2806
sS'peg'
p3527
I4025
sS'temple'
p3528
I4219
sS'minimal'
p3529
I4735
sVlaughing
p3530
I342
sS'inserting'
p3531
I3886
sS'contrasting'
p3532
I3889
sVcameraman
p3533
I1747
sVflute
p3534
I1688
sVrun
p3535
I1086
sS'mannequin'
p3536
I4027
sVfancy
p3537
I2299
sS'venetian'
p3538
I2582
sS'booklet'
p3539
I4784
sS'bookshelves'
p3540
I3272
sS'drainage'
p3541
I3256
sVworks
p3542
I1889
sVcostumes
p3543
I1748
sS'forming'
p3544
I3900
sS'stem'
p3545
I2943
sVoutdoor
p3546
I1572
sVstep
p3547
I1088
sS'oen'
p3548
I4150
sVsanta
p3549
I474
sS'tidal'
p3550
I2731
sVcostumed
p3551
I1749
sS'obscured'
p3552
I4523
sS'tower'
p3553
I2555
sS'handled'
p3554
I3470
sS'shine'
p3555
I5106
sS'moored'
p3556
I4009
sS'goods'
p3557
I3436
sS'handbags'
p3558
I2928
sS'piles'
p3559
I3370
sS'most'
p3560
I2962
sS'leftover'
p3561
I4305
sS'whiteboard'
p3562
I3206
sVtruck
p3563
I210
sVsurfers
p3564
I2376
sS'hinge'
p3565
I2889
sS'piled'
p3566
I3657
sVrange
p3567
I2377
sS'beans'
p3568
I4061
sVwicker
p3569
I194
sS'wrinkled'
p3570
I4647
sVsponsored
p3571
I1089
sS'womens'
p3572
I3796
sS'shiny'
p3573
I2570
sVblock
p3574
I1090
sS'bustier'
p3575
I4068
sS'fern'
p3576
I3325
sS'vegtables'
p3577
I4187
sS'moss'
p3578
I3308
sVgarbage
p3579
I476
sS'human-like'
p3580
I3512
sVsparring
p3581
I1704
sVinto
p3582
I477
sVwithin
p3583
I1091
sVoutstreached
p3584
I805
sS'taillights'
p3585
I4514
sS'shoebox'
p3586
I4210
sVframes
p3587
I1751
sS'glare'
p3588
I3020
sS'pharmacy'
p3589
I5075
sS'papered'
p3590
I4149
sVdownhill
p3591
I1752
sS'couches'
p3592
I4354
sVcanal
p3593
I2378
sS'sideview'
p3594
I4426
sVrows
p3595
I2379
sVstarts
p3596
I1324
sVarcade
p3597
I2148
sVretrieving
p3598
I478
sS'apartments'
p3599
I3817
sS'sock'
p3600
I3647
sVamidst
p3601
I1126
sS'baggy'
p3602
I4709
sVharnesses
p3603
I479
sS"bike's"
p3604
I3651
sS'jug'
p3605
I2695
sVhomemade
p3606
I1754
sVsuit
p3607
I481
sVforward
p3608
I1755
sS'sections'
p3609
I4758
sVathlete
p3610
I524
sVopens
p3611
I482
sVopponent
p3612
I1756
sS'files'
p3613
I2730
sVmountains
p3614
I2382
sVgroomsmen
p3615
I1757
sS'highrise'
p3616
I3832
sVan
p3617
I323
sVwaterfalls
p3618
I2476
sS'downstairs'
p3619
I4693
sVposter
p3620
I483
sS'mcdonalds'
p3621
I3534
sVvehicle
p3622
I1128
sS'slacks'
p3623
I4711
sS't-shirt'
p3624
I3305
sVcloth
p3625
I2383
sS'properly'
p3626
I4918
sVlink
p3627
I485
sS'reef'
p3628
I4760
sS'voile'
p3629
I4291
sS'russian'
p3630
I4195
sVsun
p3631
I2251
sVcrane
p3632
I2384
sS'dull'
p3633
I4699
sS'bridle'
p3634
I4274
sS'posted'
p3635
I4588
sVbalancing
p3636
I956
sVhair
p3637
I1892
sS'travelling'
p3638
I5029
sVlaptop
p3639
I2047
sS'collared'
p3640
I3923
sS'pamphet'
p3641
I3060
sS'bumpers'
p3642
I3158
sS'fries'
p3643
I3152
sVup
p3644
I488
sS'us'
p3645
I5012
sVwindows
p3646
I2319
sS'petals'
p3647
I3132
sS'growth'
p3648
I4637
sS'cartwheel'
p3649
I3777
sS'gargantua'
p3650
I4634
sS'fried'
p3651
I3670
sVsimilar
p3652
I1095
sS'notebook'
p3653
I3319
sS'bell'
p3654
I3252
sS'sheers'
p3655
I4002
sVcamp
p3656
I73
sS'discolored'
p3657
I5035
sVlabrador
p3658
I490
sS'expedition'
p3659
I4691
sVmetal
p3660
I2007
sS'mopeds'
p3661
I3343
sS'bacground'
p3662
I3037
sS'rockefeller'
p3663
I5008
sS'char'
p3664
I4106
sS'images'
p3665
I4938
sVsingle
p3666
I1762
sS'warning'
p3667
I4545
sVcurb
p3668
I1763
sS'pasture'
p3669
I3079
sVrally
p3670
I2386
sVdragging
p3671
I1764
sS'cotton'
p3672
I3747
sS'tongs'
p3673
I4352
sS'rainy'
p3674
I4616
sS'lemon'
p3675
I3502
sVpeach
p3676
I2388
sS'tuft'
p3677
I4201
sS'dashed'
p3678
I3714
sVporch
p3679
I2422
sVbacks
p3680
I2390
sS'plugged'
p3681
I3241
sS'preventing'
p3682
I3825
sS'bannisters'
p3683
I4831
sVnap
p3684
I1098
sS'bracket'
p3685
I3699
sS'electrical'
p3686
I2546
sS'parakeet'
p3687
I4153
sS'department'
p3688
I3563
sVtarp
p3689
I300
sVcricket
p3690
I1244
sS'dashes'
p3691
I3634
sVnice
p3692
I2391
sS'brushing'
p3693
I4243
sVsmiles
p3694
I1099
sVspectators
p3695
I1100
sS'mustard'
p3696
I2688
sVcrouching
p3697
I1101
sS'sided'
p3698
I3222
sS'deadbolt'
p3699
I4818
sS'cannister'
p3700
I4156
sS'liners'
p3701
I3501
sVwig
p3702
I1121
sS'lens'
p3703
I4183
sVcobblestone
p3704
I491
sVinsect
p3705
I2393
sVwakeboarding
p3706
I2394
sS'793d'
p3707
I3800
sVlips
p3708
I1085
sVprepares
p3709
I1766
sVposters
p3710
I2395
sS'depicting'
p3711
I3127
sVdesert
p3712
I1767
sVstructure
p3713
I1104
sS'bases'
p3714
I3434
sVlane
p3715
I493
sVland
p3716
I494
sS'fighter'
p3717
I3855
sS'mantel'
p3718
I3893
sVoverlooking
p3719
I1768
sS'cooker'
p3720
I2677
sS'mailing'
p3721
I4536
sS'flowerpot'
p3722
I4375
sS'holes'
p3723
I4034
sS'admiring'
p3724
I4742
sS'2002'
p3725
I4582
sS'cooked'
p3726
I3076
sVitself
p3727
I1717
sVsummit
p3728
I496
sVlying
p3729
I2321
sVfar
p3730
I2243
sS'fresh'
p3731
I2887
sS'mo-ped'
p3732
I4475
sS'svu'
p3733
I4513
sS'buffalo'
p3734
I3584
sVshirtless
p3735
I2211
sS'truckstop'
p3736
I4235
sVwrestle
p3737
I2396
sVpaw
p3738
I1560
sVlean
p3739
I2509
sVsplashing
p3740
I347
sS'stree'
p3741
I4973
sS'illustrated'
p3742
I4021
sS'antennas'
p3743
I3352
sS'pastries'
p3744
I3953
sVsnowmobile
p3745
I1771
sVscreen
p3746
I268
sS'dishwasher'
p3747
I2659
sS'moon'
p3748
I4032
sS'cupboards'
p3749
I3440
sS'stret'
p3750
I4992
sS'compact'
p3751
I3110
sS'aquarium'
p3752
I3895
sS'bicke'
p3753
I4724
sVasphalt
p3754
I2323
sS'windowsill'
p3755
I3041
sVanimal
p3756
I532
sVpeanut
p3757
I1772
sS'peering'
p3758
I4542
sVyoung
p3759
I498
sS'yound'
p3760
I4452
sVsuits
p3761
I1106
sVmarkings
p3762
I1495
sS'e-meter'
p3763
I4879
sS'uniquely'
p3764
I3726
sVflannel
p3765
I467
sVhelps
p3766
I1773
sS'mowed'
p3767
I3082
sS'granite'
p3768
I2571
sS'whisky'
p3769
I2670
sS'fences'
p3770
I4659
sS'friendly'
p3771
I4194
sS'indicating'
p3772
I4759
sVrag
p3773
I2397
sVmuzzles
p3774
I1107
sVfamily
p3775
I971
sS'queen'
p3776
I4351
sVgarden
p3777
I499
sVoutside
p3778
I2173
sS'floodlights'
p3779
I4193
sS'dessert'
p3780
I4329
sVkitty
p3781
I1108
sVhuddled
p3782
I1774
sS'grid'
p3783
I3269
sS'spoon'
p3784
I2839
sS'wavy'
p3785
I2778
sVputting
p3786
I1775
sVhugging
p3787
I1690
sS'glossy'
p3788
I3243
sVbounding
p3789
I2398
sVpracticing
p3790
I522
sVdrinking
p3791
I2399
sS'continued'
p3792
I5040
sS'wipe'
p3793
I4338
sVlegos
p3794
I1776
sVtri
p3795
I501
sVpops
p3796
I2008
sS'graphic'
p3797
I4386
sS'unreadble'
p3798
I4681
sS'ambulences'
p3799
I3056
sS'harbor'
p3800
I3642
sVsculpture
p3801
I2464
sS'notes'
p3802
I3217
sVhaving
p3803
I497
sVmichael
p3804
I1113
sVcolors
p3805
I2009
sVtry
p3806
I502
sVthis
p3807
I523
sVrace
p3808
I503
sVwindsurfer
p3809
I1639
sS'subwoofer'
p3810
I3277
sS'wallplate'
p3811
I4833
sS'moulding'
p3812
I3043
sS"car's"
p3813
I2945
sS'mid-block'
p3814
I4455
sVstairway
p3815
I617
sVsmaller
p3816
I2401
sS'elegantly'
p3817
I4908
sS'picket'
p3818
I4566
sS'pleat'
p3819
I4775
sS'twine'
p3820
I2841
sS'palapa'
p3821
I3602
sVwrestling
p3822
I2402
sS'quaker'
p3823
I2998
sVmural
p3824
I1779
sVjump
p3825
I1115
sVperched
p3826
I2403
sVcellphones
p3827
I2492
sVblowing
p3828
I618
sVvideo
p3829
I505
sVenclosed
p3830
I506
sVgo
p3831
I1105
sS'infront'
p3832
I2592
sS'grooves'
p3833
I4054
sS'spaghetti'
p3834
I4295
sS'folk'
p3835
I3475
sS'blinds'
p3836
I2583
sS'reminiscent'
p3837
I3821
sS'sausage'
p3838
I3516
sVplays
p3839
I1118
sVpower
p3840
I305
sS'paintings'
p3841
I2854
sS'wallet'
p3842
I4497
sVgiving
p3843
I1780
sS'bannister'
p3844
I4866
sS'sheraton'
p3845
I5087
sS'probably'
p3846
I4477
sS'espresso'
p3847
I4596
sVpaddle
p3848
I1781
sS"man's"
p3849
I2724
sS'access'
p3850
I3169
sVwaiting
p3851
I2405
sS'sweate'
p3852
I3550
sVeating
p3853
I1453
sS'undurtained'
p3854
I4912
sVattire
p3855
I2406
sVpulls
p3856
I361
sS'railway'
p3857
I4817
sVkayaker
p3858
I1782
sVbird
p3859
I430
sVexercise
p3860
I1783
sS'stabilizer'
p3861
I5083
sVbody
p3862
I1784
sVshoreline
p3863
I1120
sS'stance'
p3864
I4172
sVleg
p3865
I510
sS'four-door'
p3866
I2722
sVgathered
p3867
I511
sVpushing
p3868
I2407
sS'commercial'
p3869
I4881
sS'growing'
p3870
I2635
sS'objects'
p3871
I3497
sS'let'
p3872
I3085
sS'sink'
p3873
I2652
sS'licence'
p3874
I3735
sVothers
p3875
I1785
sVsing
p3876
I1786
sS"plane's"
p3877
I3862
sVextreme
p3878
I1788
sVcyclist
p3879
I1713
sVgreat
p3880
I512
sS'furled'
p3881
I4726
sS'rosary'
p3882
I4359
sS'medium-sized'
p3883
I4531
sVbroken
p3884
I1588
sVacross
p3885
I1272
sS'vines'
p3886
I4414
sS'30'
p3887
I4666
sVshades
p3888
I2409
sVleaving
p3889
I2410
sS'orangutan'
p3890
I4265
sVsubmerged
p3891
I2411
sS'grean'
p3892
I3369
sVclimb
p3893
I1789
sS'shaded'
p3894
I3376
sVmakes
p3895
I513
sS'maker'
p3896
I2792
sS'reds'
p3897
I3036
sVshowing
p3898
I1078
sVshovel
p3899
I2412
sVsat
p3900
I244
sVdrums
p3901
I1589
sVscales
p3902
I2414
sS'duct'
p3903
I2725
sS"baby's"
p3904
I4180
sVsparklers
p3905
I1122
sS'attraction'
p3906
I3831
sS'wii'
p3907
I2767
sS'wih'
p3908
I5026
sS'bartender'
p3909
I3323
sS'boxy'
p3910
I4385
sS'limo'
p3911
I3236
sVmotor
p3912
I2415
sVduck
p3913
I2416
sS'oval'
p3914
I2812
sS'faucet'
p3915
I2664
sS'gaurd'
p3916
I3703
sVsinging
p3917
I1123
sS'staple'
p3918
I3767
sVcloud
p3919
I1124
sS'lime'
p3920
I4049
sVstanding
p3921
I515
sVstrapped
p3922
I1125
sS'use'
p3923
I4050
sVfrom
p3924
I2418
sVstream
p3925
I2419
sVzip
p3926
I516
sS'iced'
p3927
I4923
sS'"music'
p3928
I2648
sS'mirrors'
p3929
I4107
sVmurky
p3930
I1325
sVfrog
p3931
I2420
sVnext
p3932
I517
sS'eleven'
p3933
I4293
sS'capri'
p3934
I3686
sVcamera
p3935
I1127
sS'manaccan'
p3936
I3697
sS'oils'
p3937
I3481
sVtoy
p3938
I1990
sVthemselves
p3939
I1791
sVhiding
p3940
I1129
sS'automobile'
p3941
I3795
sVcheeks
p3942
I1130
sVsort
p3943
I1759
sS'pencil'
p3944
I3207
sVcorndogs
p3945
I1792
sS'chandalier'
p3946
I4942
sS'carryng'
p3947
I3722
sS'kiosk'
p3948
I3353
sVsister
p3949
I620
sVtrail
p3950
I1793
sVopposing
p3951
I519
sS'parrots'
p3952
I4151
sVrabbit
p3953
I2423
sS'brochure'
p3954
I4780
sS'central'
p3955
I4412
sS'promotional'
p3956
I4980
sVbounces
p3957
I1339
sS'sculptor'
p3958
I4357
sVcarried
p3959
I2515
sVballs
p3960
I521
sVanimals
p3961
I500
sS'arched'
p3962
I2851
sS'salad'
p3963
I3333
sS'f'
I4567
sVtunnel
p3964
I1795
sVride
p3965
I1778
sVgetting
p3966
I2425
sS'whiskers'
p3967
I3610
sS'tw'
p3968
I5019
sS'arches'
p3969
I3631
sS'napkins'
p3970
I2969
sVcrossed
p3971
I1132
sVthin
p3972
I525
sVuses
p3973
I1072
sVof
p3974
I2216
sVindustrial
p3975
I1988
sVmeet
p3976
I1133
sS'closing'
p3977
I4823
sVfetch
p3978
I1796
sVsomething
p3979
I2428
sVcontrol
p3980
I1134
sS'tap'
p3981
I4147
sVbent
p3982
I526
sS'tar'
p3983
I5054
sS'escapes'
p3984
I4624
sS'lock'
p3985
I3160
sS'slim'
p3986
I3621
sVhalloween
p3987
I1135
sVpieces
p3988
I527
sVhigh
p3989
I528
sVtag
p3990
I2427
sS'hub'
p3991
I4421
sS'slender'
p3992
I2930
sVslip
p3993
I529
sS'bones'
p3994
I4175
sVdj
p3995
I716
sVtan
p3996
I2429
sVbowl
p3997
I2194
sVskirt
p3998
I1138
sS'rods'
p3999
I2671
sS'screw-top'
p4000
I4559
sS'dominant'
p4001
I2639
sVsnowboarding
p4002
I2296
sVpaws
p4003
I530
sVsit
p4004
I2430
sS'childs'
p4005
I3784
sS'onions'
p4006
I4891
sVbungee
p4007
I2431
sVholds
p4008
I1798
sS'sidewalks'
p4009
I4765
sVrodeo
p4010
I1238
sVformations
p4011
I1799
sS'arrangement'
p4012
I4008
sVlocated
p4013
I1139
sS'lamp'
p4014
I2603
sVsplashes
p4015
I1984
sVacrobatic
p4016
I664
sVforest
p4017
I1800
sS'bark'
p4018
I4214
sS'beams'
p4019
I3105
sS'brownstone'
p4020
I3400
sS'bandana'
p4021
I4368
sVtoddler
p4022
I2434
sS'sin'
p4023
I4663
sVcircular
p4024
I1141
sS'profile'
p4025
I3918
sVbuildings
p4026
I1802
sS'honda'
p4027
I4413
sVblocks
p4028
I533
sVhalter
p4029
I534
sVfarm
p4030
I1142
sVwatch
p4031
I2012
sVwaters
p4032
I1803
sS'wallpaper'
p4033
I3044
sS'wristwatch'
p4034
I2627
sVpeace
p4035
I2389
sS'collection'
p4036
I3199
sVwalk
p4037
I2484
sVtattoo
p4038
I597
sS'loading'
p4039
I4504
sS'wrist'
p4040
I2607
sVbelongings
p4041
I1143
sS'ties'
p4042
I4392
sS'cabbage'
p4043
I3000
sS'speckled'
p4044
I2897
sVterrier
p4045
I1804
sS'racks'
p4046
I4252
sS'fray'
p4047
I4408
sS'tomato'
p4048
I3017
sS'drape'
p4049
I4827
sVchasing
p4050
I1805
sVlight
p4051
I2437
sVcounter
p4052
I536
sVlines
p4053
I1806
sS'liner'
p4054
I3290
sS'lighs'
p4055
I4779
sS'processor'
p4056
I4462
sS'linen'
p4057
I4316
sS'bakery'
p4058
I3952
sVtackling
p4059
I876
sVdish
p4060
I2236
sVcrawling
p4061
I2439
sVnecklace
p4062
I2440
sVlined
p4063
I1807
sS'martini'
p4064
I3482
sVmustache
p4065
I1808
sS'backpark'
p4066
I4451
sVbathing
p4067
I1144
sS'level'
p4068
I2985
sS'lathe'
p4069
I4259
sS'pallets'
p4070
I3586
sVtrain
p4071
I1794
sVwedding
p4072
I2013
sS'bean'
p4073
I4309
sS'meter'
p4074
I2925
sS'filigre'
p4075
I3048
sS'symbols'
p4076
I4086
sVwhilst
p4077
I2441
sS'cambridge'
p4078
I4401
sVticket
p4079
I2247
sVcostume
p4080
I1146
sVhorns
p4081
I1809
sVletters
p4082
I622
sS'brittle'
p4083
I4964
sS'nighstand'
p4084
I4887
sS'badges'
p4085
I3212
sVbunch
p4086
I1810
sS'raw'
p4087
I3008
sS'horizontally'
p4088
I4020
sS'whit'
p4089
I4825
sVtightrope
p4090
I531
sS'sill'
p4091
I2936
sVbroom
p4092
I1858
sS'notebooks'
p4093
I4493
sS'burgandy'
p4094
I4690
sVhim
p4095
I2328
sS'decal'
p4096
I4994
sVsquatting
p4097
I1811
sVmarsh
p4098
I1812
sVasking
p4099
I757
sS'cotta'
p4100
I3995
sVorange
p4101
I1868
sS'dingy'
p4102
I4886
sS'receptacles'
p4103
I2919
sVhiker
p4104
I1918
sVcrowds
p4105
I2446
sS'attachment'
p4106
I4565
sS'magnet'
p4107
I3493
sS'earl'
p4108
I3225
sS'designs'
p4109
I3302
sVcrash
p4110
I2447
sVsword
p4111
I1147
sVfighting
p4112
I2493
sS'tangle'
p4113
I4850
sS'outlined'
p4114
I3618
sS'material'
p4115
I4074
sVbeads
p4116
I2014
sS'oranges'
p4117
I3039
sVtutu
p4118
I2400
sS'ticker'
p4119
I3867
sS'pins'
p4120
I3307
sVcutting
p4121
I1813
sS'japenese'
p4122
I4920
sVkiss
p4123
I541
sVhands
p4124
I1148
sVfront
p4125
I1149
sS'planter'
p4126
I2720
sVcage
p4127
I542
sVday
p4128
I1814
sS'backhoe'
p4129
I3770
sVmotorcycles
p4130
I1697
sVstunts
p4131
I1815
sVspeaks
p4132
I2114
sVblindfolded
p4133
I1816
sS'greens'
p4134
I4590
sS'earring'
p4135
I3070
sS'glassed'
p4136
I3170
sVscenic
p4137
I543
sVuniversity
p4138
I1150
sVboots
p4139
I1114
sS'divides'
p4140
I3441
sVsniffing
p4141
I544
sS'beady'
p4142
I4956
sS'siver'
p4143
I3763
sVweather
p4144
I2522
sVtreads
p4145
I1242
sS'blacktop'
p4146
I4855
sVtights
p4147
I85
sVcrossing
p4148
I1152
sS'tubing'
p4149
I4959
sVbeneath
p4150
I545
sVonlookers
p4151
I1801
sVshaking
p4152
I1153
sVrowing
p4153
I2015
sVbrush
p4154
I2523
sVwatery
p4155
I547
sS'sconces'
p4156
I4646
sS'tabby'
p4157
I3838
sS'moped'
p4158
I2744
sVby
p4159
I475
sVtents
p4160
I548
sVdoing
p4161
I549
sS'hong'
p4162
I4696
sVinstrument
p4163
I294
sVhurdles
p4164
I2435
sS'pantry'
p4165
I4190
sVmulticolored
p4166
I1154
sS'scrub'
p4167
I4903
sS'books'
p4168
I2567
sS'thirteen'
p4169
I3382
sVjagged
p4170
I550
sS'cupboard'
p4171
I4899
sVsweatshirt
p4172
I1818
sVpatch
p4173
I87
sVspecial
p4174
I1155
sVout
p4175
I2449
sS'u-shaped'
p4176
I4822
sS'groove'
p4177
I3299
sVcollar
p4178
I2305
sVstaircase
p4179
I817
sS'frontier'
p4180
I3509
sS'hedges'
p4181
I2904
sS'plum'
p4182
I3286
sVlitter
p4183
I2372
sVscooter
p4184
I1037
sS'sandbox'
p4185
I4204
sS'vcr'
p4186
I2766
sS'messenger'
p4187
I4279
sVplayground
p4188
I1156
sS'flushing'
p4189
I3456
sS'convertible'
p4190
I3310
sS'spiked'
p4191
I5038
sS'electronics'
p4192
I4080
sS'utility'
p4193
I2864
sS'supports'
p4194
I3931
sS'remax'
p4195
I3446
sVred
p4196
I1822
sS'architecture'
p4197
I4743
sVracquet
p4198
I314
sS'shut'
p4199
I3455
sS'parquet'
p4200
I3467
sVumbrella
p4201
I1157
sS'satin'
p4202
I4877
sVrowboat
p4203
I2524
sVpours
p4204
I2452
sS'utensil'
p4205
I3389
sS'toll'
p4206
I4225
sS'darkly'
p4207
I4811
sVapproaches
p4208
I1823
sS'pendant'
p4209
I3435
sS'dumpster'
p4210
I3022
sVridge
p4211
I1899
sVsitting
p4212
I1956
sS'princess'
p4213
I4228
sVretrieves
p4214
I1824
sVretriever
p4215
I1825
sVscary
p4216
I552
sVbackwards
p4217
I1826
sVyard
p4218
I660
sS'guardrails'
p4219
I4543
sS'archways'
p4220
I3849
sS'route'
p4221
I3143
sS'cabenet'
p4222
I4577
sVskateboard
p4223
I1827
sS'levi'
p4224
I4439
sS'padlock'
p4225
I4207
sS'conversation'
p4226
I3130
sVchicken
p4227
I2472
sS'produce'
p4228
I3363
sVwading
p4229
I1159
sS'manicured'
p4230
I2903
sS'felt'
p4231
I4012
sVbiting
p4232
I2454
sS'retail'
p4233
I5000
sS'housing'
p4234
I3267
sS'waitress'
p4235
I2971
sS'chalkboard'
p4236
I2704
sS'tacked'
p4237
I2584
sS'plastics'
p4238
I2703
sS'armoir'
p4239
I4795
sVsnowcapped
p4240
I2457
sS'pines'
p4241
I4717
sS'justine'
p4242
I4650
sS'signboard'
p4243
I5001
sVscene
p4244
I555
sVreaches
p4245
I682
sVgreyhound
p4246
I1378
sS'coloful'
p4247
I3476
sS'residence'
p4248
I4873
sVhurdle
p4249
I688
sS'tarmacked'
p4250
I4410
sVowner
p4251
I556
sVstump
p4252
I2331
sVblows
p4253
I557
sVstraight
p4254
I451
sS'braces'
p4255
I4389
sVbull
p4256
I1869
sVlong
p4257
I1161
sVmonkey
p4258
I1828
sS'bears'
p4259
I4924
sS'paver'
p4260
I3555
sS'terracotta'
p4261
I5099
sS'accent'
p4262
I3047
sS'system'
p4263
I2545
sS'wrapper'
p4264
I2885
sS"bull's"
p4265
I3629
sS'excavation'
p4266
I3933
sVattack
p4267
I1162
sVslide
p4268
I1151
sS'decorations'
p4269
I4353
sVtime
p4270
I160
sVankle
p4271
I1997
sS'rippled'
p4272
I4117
sVchases
p4273
I1830
sS'liquor'
p4274
I2958
sS'cabin'
p4275
I3013
sS'circulate'
p4276
I3086
sS'flume'
p4277
I3654
sS'classroom'
p4278
I4046
sVagility
p4279
I2459
sS'shell'
p4280
I3615
sVstomach
p4281
I401
sS'benath'
p4282
I4736
sVshepherd
p4283
I2325
sVshorts
p4284
I560
sS'shelf'
p4285
I2568
sS'completed'
p4286
I2604
sVshallow
p4287
I2460
sVmotorcycle
p4288
I578
sVdreadlocks
p4289
I2461
sVslides
p4290
I2462
sS'foamy'
p4291
I2910
sVreflecting
p4292
I2463
sS'manhole'
p4293
I3664
sVbranches
p4294
I2119
sVlush
p4295
I594
sVpoliceman
p4296
I2091
sVherself
p4297
I1165
sS'receiver'
p4298
I4778
sVnoses
p4299
I821
sS'steel'
p4300
I2651
sVphotograph
p4301
I1167
sS'dresser'
p4302
I2820
sS'coast'
p4303
I4719
sVdevice
p4304
I563
sS'youtube'
p4305
I3317
sVbed
p4306
I1168
sVbee
p4307
I1169
sS'firework'
p4308
I4251
sS'providing'
p4309
I2916
sVsteep
p4310
I561
sVare
p4311
I2333
sVexhibit
p4312
I1170
sVstraps
p4313
I2438
sS'fume'
p4314
I4856
sS'violets'
p4315
I3801
sS'carrots'
p4316
I4340
sVteenagers
p4317
I2465
sS'curves'
p4318
I3652
sS'comfortable'
p4319
I4218
sS'recyclable'
p4320
I4661
sS'recessed'
p4321
I3443
sVhooping
p4322
I1171
sVhave
p4323
I1832
sS'quiche'
p4324
I4892
sS'faux'
p4325
I4585
sS'curved'
p4326
I2616
sVturn
p4327
I2137
sVborder
p4328
I1172
sS'clearly'
p4329
I3721
sVsidecar
p4330
I1833
sS'illuminated'
p4331
I2821
sS'screw'
p4332
I4591
sVmicrophone
p4333
I2042
sVmountainous
p4334
I562
sS'smallest'
p4335
I4111
sS'dishes'
p4336
I3479
sS'cranes'
p4337
I3708
sS'hammer'
p4338
I4440
sS"child's"
p4339
I5002
sVmid
p4340
I1834
sS'mix'
p4341
I4057
sS'baseboards'
p4342
I4796
sS'armrests'
p4343
I2600
sVfield
p4344
I1604
sVwhich
p4345
I2466
sVso
p4346
I1174
sS'detector'
p4347
I4846
sS'inverted'
p4348
I4916
sVparka
p4349
I1835
sS'soap'
p4350
I3220
sS'vegetation'
p4351
I3398
sS'blades'
p4352
I2750
sVbeyond
p4353
I996
sS'scrubs'
p4354
I4069
sVcombat
p4355
I2467
sS'repairs'
p4356
I4438
sS'newpaper'
p4357
I3797
sVchickens
p4358
I2362
sVwho
p4359
I2468
sS'rite'
p4360
I3753
sS'kickstand'
p4361
I3350
sS'baseboard'
p4362
I3390
sS'biplane'
p4363
I3781
sS'mixes'
p4364
I4144
sS'visa'
p4365
I4102
sS'connected'
p4366
I3432
sVamongst
p4367
I2224
sS'hilltop'
p4368
I4373
sS'spacesuit'
p4369
I3856
sS'cabinet'
p4370
I2553
sVgallery
p4371
I1177
sS'starched'
p4372
I4315
sVbicyclists
p4373
I1570
sVcellphone
p4374
I1178
sS'evergreens'
p4375
I5115
sVtakes
p4376
I973
sS'quilted'
p4377
I4799
sS'nobody'
p4378
I4382
sS'urn'
p4379
I3891
sVgather
p4380
I1838
sVfountain
p4381
I953
sS'curving'
p4382
I2686
sS'dent'
p4383
I3038
sVpipe
p4384
I2470
sS'smoggy'
p4385
I5102
sVpulling
p4386
I1136
sS'prickly'
p4387
I5091
sVbrunette
p4388
I397
sS'bins'
p4389
I4660
sS"don't"
p4390
I5003
sVmovie
p4391
I438
sS'lakes'
p4392
I3811
sVshines
p4393
I2076
sVskinny
p4394
I1839
sS'typical'
p4395
I4578
sVpainting
p4396
I565
sS'buoys'
p4397
I3643
sVlease
p4398
I1677
sVemerging
p4399
I1180
sS'recess'
p4400
I4902
sS'backrest'
p4401
I3155
sVkite
p4402
I1840
sS'barcode'
p4403
I4538
sVkiddie
p4404
I1181
sVshirted
p4405
I566
sVstove
p4406
I2471
sVindoor
p4407
I1182
sS'crate'
p4408
I3314
sS'braking'
p4409
I4517
sS'connect'
p4410
I4583
sS'bring'
p4411
I4087
sVbiker
p4412
I567
sS'rusted'
p4413
I3769
sVgreenhouse
p4414
I569
sVbedroom
p4415
I570
sS'ottoman'
p4416
I2808
sS'spindle'
p4417
I4865
sS'msnhole'
p4418
I4505
sS'brow'
p4419
I4396
sS'shield'
p4420
I3972
sVcartwheels
p4421
I83
sVwear
p4422
I2023
sVtrying
p4423
I934
sS'based'
p4424
I3498
sS'exstinguisher'
p4425
I4137
sVtire
p4426
I1184
sS'pillowcases'
p4427
I4852
sS'hade'
p4428
I3367
sVmug
p4429
I2019
sVpoles
p4430
I1119
sS'porches'
p4431
I3442
sS'buttons'
p4432
I3336
sS"there's"
p4433
I2723
sVtape
p4434
I573
sS'shinny'
p4435
I2669
sS'combo'
p4436
I4141
sS'employee'
p4437
I3878
sVriding
p4438
I574
sVpiano
p4439
I2473
sVpartially
p4440
I1905
sVpointed
p4441
I1489
sVhall
p4442
I834
sS'matress'
p4443
I4770
sVmove
p4444
I575
sVhandle
p4445
I576
sVwatching
p4446
I2474
sS'indentations'
p4447
I3898
sS'canvases'
p4448
I3916
sS'casing'
p4449
I4532
sS'striper'
p4450
I3903
sVstripes
p4451
I1842
sVbear
p4452
I1843
sVflips
p4453
I213
sVsix
p4454
I2432
sVbeam
p4455
I1844
sS'wndow'
p4456
I4824
sS'ones'
p4457
I3967
sVstars
p4458
I559
sS'words'
p4459
I2646
sVbeak
p4460
I1845
sS'bead'
p4461
I4800
sVstriped
p4462
I1846
sS'chips'
p4463
I2988
sS'styrofoam'
p4464
I2940
sS'weating'
p4465
I3349
sS'panelled'
p4466
I3792
sS'thermoses'
p4467
I3471
sS'processer'
p4468
I4597
sS'ribbed'
p4469
I3053
sS'organ'
p4470
I4945
sVcourse
p4471
I214
sVshopping
p4472
I1552
sS'creram'
p4473
I4773
sS'eyebrow'
p4474
I3122
sVteams
p4475
I1847
sS'bricks'
p4476
I2753
sS'stuff'
p4477
I4077
sVshe
p4478
I2132
sVcamels
p4479
I2433
sS'mercedes'
p4480
I3088
sVincluding
p4481
I1145
sVuniformed
p4482
I2135
sVhandstand
p4483
I577
sS'grae'
p4484
I2834
sVview
p4485
I2140
sVspotted
p4486
I1190
sVrafts
p4487
I2142
sS'workbench'
p4488
I4262
sS'farthest'
p4489
I5114
sVturkeys
p4490
I1848
sVhardwood
p4491
I1191
sVpuddle
p4492
I1849
sS'cruise'
p4493
I4168
sVterrain
p4494
I1192
sS'lazy'
p4495
I3387
sS'packet'
p4496
I3911
sVyawning
p4497
I216
sVcomputer
p4498
I1193
sS'slanted'
p4499
I3298
sVdriveway
p4500
I2155
sVskateboarding
p4501
I580
sVracket
p4502
I1850
sVrecently
p4503
I2337
sS'barrels'
p4504
I4417
sS'leopard'
p4505
I3627
sS'crt'
p4506
I3213
sVpacked
p4507
I581
sVcreating
p4508
I2338
sS'lace'
p4509
I2816
sS'coils'
p4510
I4146
sS'love-seat'
p4511
I3508
sVinteracting
p4512
I583
sS'closet'
p4513
I2882
sVattempting
p4514
I1852
sVpattern
p4515
I1853
sVposing
p4516
I2426
sS'nature'
p4517
I4267
sS'squinting'
p4518
I3121
sVpurses
p4519
I1854
sVpinata
p4520
I1195
sVwritten
p4521
I1194
sS'connection'
p4522
I2620
sS'oncoming'
p4523
I3750
sS'cloudless'
p4524
I2909
sVclosed
p4525
I2477
sVscarf
p4526
I554
sVprogress
p4527
I1855
sS'cola'
p4528
I3322
sS'charcoal'
p4529
I3925
sS'mainly'
p4530
I2564
sVtent
p4531
I1196
sS'countertops'
p4532
I2789
sVattention
p4533
I2339
sS'widow'
p4534
I4627
sS'bridges'
p4535
I4741
sVjoy
p4536
I2480
sVbuckets
p4537
I1197
sVgym
p4538
I1332
sS'4door'
p4539
I4399
sVcourtyard
p4540
I585
sVkicking
p4541
I1198
sVairplane
p4542
I816
sVno
p4543
I2078
sS'key'
p4544
I3320
sVtuxedos
p4545
I1851
sVpolice
p4546
I1200
sS'gazebos'
p4547
I4405
sS'mailbox'
p4548
I3381
sVboxing
p4549
I538
sS'freezer'
p4550
I4140
sS'thumb'
p4551
I3595
sVhits
p4552
I1201
sVpiece
p4553
I1251
sVdrum
p4554
I587
sS'trump'
p4555
I5025
sS'shingle'
p4556
I3451
sVtaking
p4557
I1856
sS'la'
p4558
I3365
sVaqua
p4559
I1202
sS'aircraft'
p4560
I3854
sVdisplay
p4561
I1252
sS'tlc'
p4562
I4979
sVdoorway
p4563
I589
sS'grain'
p4564
I3779
sS'thicke'
p4565
I5036
sS'dryers'
p4566
I4165
sVswim
p4567
I913
sS'founatin'
p4568
I3137
sVheart
p4569
I590
sVterriers
p4570
I2444
sS'washed-out'
p4571
I4558
sVchinese
p4572
I2235
sS'aa'
p4573
I3556
sS'torn'
p4574
I3805
sVstatues
p4575
I1859
sVpounces
p4576
I591
sVbearing
p4577
I634
sVwall
p4578
I2483
sVdenim
p4579
I1860
sS'speaker'
p4580
I2598
sVbikini
p4581
I1063
sVbooth
p4582
I1117
sS'packaging'
p4583
I3224
sVrural
p4584
I1259
sVlaugh
p4585
I1861
sVpolka
p4586
I1204
sVtable
p4587
I1628
sVreferee
p4588
I2347
sS'basing'
p4589
I4834
sS'flowering'
p4590
I4200
sS'trays'
p4591
I2597
sVnose
p4592
I1746
sS'puffs'
p4593
I3951
sVpouring
p4594
I1862
sVflowered
p4595
I2089
sVfountains
p4596
I1245
sVmotorbike
p4597
I2485
sS'multi-paned'
p4598
I4999
sS'powered'
p4599
I4495
sS"it's"
p4600
I3385
sVmuddy
p4601
I1864
sS'bricked'
p4602
I2543
sS'sox'
p4603
I4446
sS'led'
p4604
I3866
sS'crumbling'
p4605
I3364
sVint
p4606
I635
sS'ladles'
p4607
I4871
sVtreat
p4608
I1205
sS'eraser'
p4609
I4546
sS'protrudes'
p4610
I4638
sS'aquamarine'
p4611
I3551
sVcurtain
p4612
I1865
sS'utilizing'
p4613
I5053
sS'waste'
p4614
I3274
sS'suasage'
p4615
I3587
sVtraveling
p4616
I2404
sS'angled'
p4617
I3935
sVshoulders
p4618
I1206
sS'tissues'
p4619
I3437
sS'vinci'
p4620
I3531
sVmaneuvers
p4621
I1372
sVpainted
p4622
I2486
sVface
p4623
I564
sS'pastry'
p4624
I3744
sS'caddy'
p4625
I4470
sVtopless
p4626
I1909
sVridden
p4627
I1867
sS'controller'
p4628
I2855
sS'dressers'
p4629
I4867
sVdeep
p4630
I1601
sS'angles'
p4631
I3901
sS'graphics'
p4632
I3126
sVkicks
p4633
I1208
sS'bulb'
p4634
I3486
sS"chair's"
p4635
I2707
sVfellow
p4636
I1602
sS'walkways'
p4637
I4740
sS'present'
p4638
I3920
sS'eyelgasses'
p4639
I4642
sS'homes'
p4640
I3648
sVmulti
p4641
I1870
sS'main'
p4642
I4607
sVcouple
p4643
I117
sS'abandoned'
p4644
I5085
sS'utensils'
p4645
I2665
sS'dodge'
p4646
I4423
sVplain
p4647
I1872
sS'runway'
p4648
I3572
sS'tshirt'
p4649
I2580
sS'rectangular'
p4650
I2637
sS'grinning'
p4651
I3120
sS'gucci'
p4652
I3536
sVwild
p4653
I2488
sVpictures
p4654
I1050
sVbathtub
p4655
I593
sS'knot'
p4656
I3464
sVat
p4657
I325
sS'supply'
p4658
I3215
sS'taupe'
p4659
I4348
sVwaterskier
p4660
I1211
sS'cereals'
p4661
I4139
sS'sholder'
p4662
I3858
sVplaza
p4663
I1472
sS'stairwell'
p4664
I3752
sS'blood'
p4665
I3326
sS'crests'
p4666
I4636
sVside
p4667
I1315
sS"children's"
p4668
I4129
sVsurface
p4669
I1212
sS'readin'
p4670
I4984
sS'hardware'
p4671
I3548
sS'properties'
p4672
I4571
sS'canteloupes'
p4673
I5044
sVswinging
p4674
I1213
sS'vw'
p4675
I3368
sVminiature
p4676
I2257
sVtools
p4677
I514
sVlambs
p4678
I1214
sVsits
p4679
I596
sS'conical'
p4680
I4785
sS'mover'
p4681
I3873
sVdeflated
p4682
I2202
sS'cd/radio'
p4683
I4125
sS'ostentatious'
p4684
I4499
sVmoves
p4685
I598
sS'highlighter'
p4686
I2727
sS'vintage'
p4687
I3096
sVballoon
p4688
I1215
sS'headlight'
p4689
I2927
sS'paperbag'
p4690
I2613
sVupside
p4691
I1967
sS'bishop'
p4692
I3373
sVmember
p4693
I2490
sS'flasks'
p4694
I4157
sVstrange
p4695
I1216
sVtumbling
p4696
I1874
sVdigging
p4697
I599
sS'largest'
p4698
I4164
sS'recliners'
p4699
I4217
sVparty
p4700
I1217
sVgets
p4701
I2491
sVshovels
p4702
I1379
sS'tomatoes'
p4703
I4071
sS'eater'
p4704
I3982
sVdisc
p4705
I647
sS'care'
p4706
I3695
sVtrucks
p4707
I1188
sVball
p4708
I600
sVslightly
p4709
I143
sVdusk
p4710
I601
sVearphones
p4711
I1595
sS'bale'
p4712
I4108
sVdrink
p4713
I602
sS'upon'
p4714
I3480
sVcollie
p4715
I329
sS'octagon'
p4716
I4815
sVbinoculars
p4717
I1876
sS'pave'
p4718
I3676
sS'paving'
p4719
I3359
sS'student'
p4720
I3926
sVgestures
p4721
I1069
sS'whale'
p4722
I4132
sS'broccoli'
p4723
I4131
sS'francisco'
p4724
I5105
sS'destruction'
p4725
I3932
sVnumbered
p4726
I1877
sVunderneath
p4727
I2126
sS'gutter'
p4728
I4629
sVoff
p4729
I605
sVsurfboard
p4730
I2310
sVdock
p4731
I539
sVi
I1220
sS'apole'
p4732
I4880
sS'overcast'
p4733
I2965
sVwell
p4734
I1222
sS'carved'
p4735
I3253
sS'bluest'
p4736
I5017
sS'english'
p4737
I4271
sVawning
p4738
I1223
sS'knotty'
p4739
I3738
sS'limp'
p4740
I4667
sS'audio'
p4741
I4494
sVcones
p4742
I1083
sS'spacebar'
p4743
I4593
sS'interlocked'
p4744
I4640
sS'rocker'
p4745
I4842
sS'ny'
p4746
I4993
sS'minivan'
p4747
I3033
sVguitarist
p4748
I2533
sVstores
p4749
I1880
sS'bananas'
p4750
I3844
sVrocket
p4751
I2496
sVcamel
p4752
I2497
sS'storage'
p4753
I2743
sVhalf
p4754
I2498
sS'keeping'
p4755
I4988
sS'chord'
p4756
I3466
sS'salmon'
p4757
I3407
sS'batteries'
p4758
I4100
sVdistant
p4759
I1224
sVfishing
p4760
I2499
sVseats
p4761
I1882
sS'frongt'
p4762
I4231
sS'keypad'
p4763
I2979
sVwaterskiing
p4764
I2534
sS'unplugged'
p4765
I2697
sS'paui'
p4766
I4363
sS'begin'
p4767
I5107
sS'web'
p4768
I4619
sVlooks
p4769
I2442
sS'feathered'
p4770
I4955
sS'console'
p4771
I2856
sS'ads'
p4772
I3672
sS'nissan'
p4773
I3396
sS'roses'
p4774
I3559
sVresidential
p4775
I607
sS'cheetahs'
p4776
I3624
sS'pictogram'
p4777
I4450
sS'dinning'
p4778
I4336
sS'wash'
p4779
I4166
sS'canister'
p4780
I2654
sVbench
p4781
I1884
sS'corroded'
p4782
I4518
sS'lattice'
p4783
I4898
sS'shutters'
p4784
I3161
sVother
p4785
I2535
sVextends
p4786
I1225
sS'halo'
p4787
I2861
sS'combing'
p4788
I4245
sVwet
p4789
I1060
sS'ames'
p4790
I4454
sVbiking
p4791
I1064
sS'jars'
p4792
I3066
sVballoons
p4793
I2353
sVmatch
p4794
I1886
sS'boom'
p4795
I4727
sVidentical
p4796
I2503
sS'forklift'
p4797
I3072
sVledge
p4798
I1916
sS'coins'
p4799
I4310
sS'molding'
p4800
I4349
sVchecking
p4801
I608
sVpants
p4802
I2478
sS'desl'
p4803
I4580
sS'easel'
p4804
I3459
sS'cedar'
p4805
I3449
sS'awnings'
p4806
I2870
sVfacial
p4807
I2504
sVdesk
p4808
I610
sS'propeller'
p4809
I3782
sS'footstool'
p4810
I4911
sS'ceramic'
p4811
I2680
sVintersection
p4812
I1230
sS'cell'
p4813
I3540
sVrollerblading
p4814
I1605
sS"dvd's"
p4815
I2759
sVtrash
p4816
I2231
sS'crisp'
p4817
I4530
sVlike
p4818
I1887
sS'onion'
p4819
I2942
sS'pamphlet'
p4820
I3431
sVchairs
p4821
I1082
sVsofa
p4822
I1888
sVring
p4823
I849
sS'grating'
p4824
I2932
sS'matte'
p4825
I4882
sVclown
p4826
I2373
sVsized
p4827
I1232
sVgarage
p4828
I613
sVdancer
p4829
I1708
sS'chekered'
p4830
I4782
sS'brakelight'
p4831
I4703
sS'corners'
p4832
I2804
sS'2door'
p4833
I4400
sVsoft
p4834
I1890
sS'page'
p4835
I4022
sS'heel'
p4836
I4343
sS'replacement'
p4837
I5042
sVframed
p4838
I1750
sVshed
p4839
I1233
sS'unable'
p4840
I3521
sS'commodious'
p4841
I4900
sS'trashbin'
p4842
I3184
sS'lapel'
p4843
I3068
sVchurch
p4844
I2506
sS'searching'
p4845
I3601
sS'library'
p4846
I2799
sVswimsuits
p4847
I1891
sS'whtie'
p4848
I4595
sS'padlocked'
p4849
I4256
sS'daylight'
p4850
I3851
sVpaved
p4851
I1164
sVgymnastics
p4852
I614
sS'sickles'
p4853
I3656
sS'cutains'
p4854
I4171
sS'spiraling'
p4855
I4301
sS'fenceing'
p4856
I4654
sS'happens'
p4857
I4474
sVcliff
p4858
I2526
sS'wrap/scarf'
p4859
I4360
sS'shrub'
p4860
I3577
sVlead
p4861
I2508
sS'trimmed'
p4862
I2741
sVdunes
p4863
I1893
sS'drop'
p4864
I4963
sS'kettle'
p4865
I2679
sS'miner'
p4866
I3107
sS'sketching'
p4867
I3922
sS'markers'
p4868
I3847
sVgoats
p4869
I2343
sS'shelter'
p4870
I3062
sVleap
p4871
I2510
sVcampfire
p4872
I2511
sVearrings
p4873
I2512
sVcutout
p4874
I2475
sS'belt'
p4875
I3565
sS'funnel'
p4876
I4371
sS'mulch'
p4877
I2905
sVblurry
p4878
I616
sS'panes'
p4879
I3673
sS'casters'
p4880
I3291
sS'pepper'
p4881
I2847
sVhose
p4882
I1116
sS'metro'
p4883
I4544
sVmedieval
p4884
I1236
sS'slight'
p4885
I3728
sVdangling
p4886
I2513
sS'goatee'
p4887
I3907
sS'mitt'
p4888
I3776
sVrock
p4889
I1497
sS'lighthouse'
p4890
I4763
sS'sizes'
p4891
I3514
sS'cove'
p4892
I4761
sS'pressure'
p4893
I3327
sS'nathans'
p4894
I5057
sVwatercraft
p4895
I102
sS'valances'
p4896
I4182
sS'platforms'
p4897
I4051
sS'paned'
p4898
I3640
sVpasta
p4899
I2514
sS'fluorescent'
p4900
I3391
sS'buttoned'
p4901
I3335
sS'stormy'
p4902
I5113
sVpumps
p4903
I2537
sS'rust'
p4904
I3197
sVdrives
p4905
I2198
sVstage
p4906
I619
sS'throne'
p4907
I4223
sVabout
p4908
I1894
sS'ponytailed'
p4909
I3087
sVboards
p4910
I1895
sS'extension'
p4911
I3453
sVsaddle
p4912
I2516
sVcolumn
p4913
I2517
sS'tray'
p4914
I2805
sS'abogados'
p4915
I4541
sS'pocketbook'
p4916
I4285
sS'grips'
p4917
I3209
sVlocation
p4918
I464
sS'shipping'
p4919
I3702
sS'surge'
p4920
I2594
sVbearded
p4921
I1395
sS'chrome'
p4922
I3425
sVcarries
p4923
I2518
sVcarrier
p4924
I2519
sS'inbox'
p4925
I2596
sS'sweat'
p4926
I3288
sS'perky'
p4927
I3491
sVpuppies
p4928
I1240
sVtongue
p4929
I1241
sVglasses
p4930
I546
sS'downspout'
p4931
I3649
sVswimming
p4932
I621
sS'height'
p4933
I4670
sS'reptile'
p4934
I3612
sS'steeples'
p4935
I4669
sS'polished'
p4936
I3424
sVwilderness
p4937
I2521
sS'uncertain'
p4938
I4997
sVskates
p4939
I1477
sVsocks
p4940
I1896
sS'cocoa'
p4941
I4331
sVguard
p4942
I1897
sS'dvd'
p4943
I4828
sVbeen
p4944
I2031
sVfemale
p4945
I1898
sS'buds'
p4946
I3937
sS'roads'
p4947
I5020
sS'lovely'
p4948
I4482
sVswimmers
p4949
I623
sS'jigsaw'
p4950
I2605
sS'brass'
p4951
I2602
sS'birdhouse'
p4952
I4603
sVhandbag
p4953
I1837
sVbikes
p4954
I568
sS'upside-down'
p4955
I4346
sS'signify'
p4956
I3529
sVvan
p4957
I2525
sS'pc'
p4958
I3214
sS'stainless'
p4959
I2650
sS'vegetables'
p4960
I2992
sVfirefighter
p4961
I1900
sS'spiral'
p4962
I3162
sVspots
p4963
I624
sVsurfs
p4964
I1186
sS'chinses'
p4965
I4698
sS'bump'
p4966
I3803
sS'inner'
p4967
I4820
sS'drumstick'
p4968
I3077
sS'shredder'
p4969
I4618
sS'treet'
p4970
I3001
sS'globe'
p4971
I3055
sVbeverage
p4972
I331
sS'bagged'
p4973
I4337
sVbeard
p4974
I1998
sS'ivory'
p4975
I3507
sVbuy
p4976
I1901
sS'north'
p4977
I3734
sVmiami
p4978
I2505
sVbus
p4979
I1902
sS'brand'
p4980
I3412
sS'nametag'
p4981
I3337
sS'triangular'
p4982
I3837
sVbut
p4983
I1903
sS'delivery'
p4984
I3203
sS'landscaping'
p4985
I2967
sVconstruction
p4986
I625
sS'plague'
p4987
I5031
sS'rear-view'
p4988
I3626
sS'courts'
p4989
I3736
sVlarger
p4990
I2408
sS'bookshelf'
p4991
I2591
sS'squeeze'
p4992
I3230
sVbug
p4993
I1904
sS'bue'
p4994
I3071
sValso
p4995
I415
sVmade
p4996
I2527
sVtossed
p4997
I627
sS'beds'
p4998
I3395
sS'chained'
p4999
I5050
sVofficial
p5000
I628
sVsmooth
p5001
I629
sVflip
p5002
I1906
sS'vacant'
p5003
I4553
sVrecord
p5004
I2528
sVbelow
p5005
I2529
sVtosses
p5006
I631
sS'stories'
p5007
I3645
sS'"one'
p5008
I4970
sVmonument
p5009
I633
sVcake
p5010
I2481
sVrobot
p5011
I537
sS'informational'
p5012
I3829
sS'squat'
p5013
I4240
sS'stirring'
p5014
I3422
sVobstacles
p5015
I1221
sVskating
p5016
I1907
sVtussle
p5017
I959
sVmarketplace
p5018
I1253
sVunusual
p5019
I1587
sS'dual'
p5020
I4250
sS'nurses'
p5021
I3331
sVcurve
p5022
I2233
sS'brochures'
p5023
I4915
sS'penny'
p5024
I4605
sVkisses
p5025
I1254
sS'pie'
p5026
I3593
sVmaroon
p5027
I2530
sS'pig'
p5028
I3588
sS'separating'
p5029
I4746
sS'shutter'
p5030
I3188
sS'replica'
p5031
I4328
sS'cheetah'
p5032
I3623
sS'tabletop'
p5033
I3027
sS'wiper'
p5034
I3723
sS'car/train'
p5035
I4130
sVflight
p5036
I2348
sVtrotting
p5037
I2532
sS'trailing'
p5038
I4498
sVcampus
p5039
I1912
sVlimb
p5040
I1790
sVbalcony
p5041
I1255
sS'planting'
p5042
I4511
sS'lopsided'
p5043
I5034
sS'spit'
p5044
I4065
sS'variety'
p5045
I3960
sVpedestrians
p5046
I495
sVdressed
p5047
I1913
sS'socket'
p5048
I2624
sS'spoiler'
p5049
I4962
sS'detail'
p5050
I4418
sS'monitors'
p5051
I3259
sVjeeps
p5052
I1914
sS'mast'
p5053
I3717
sVpopping
p5054
I1819
sVbranch
p5055
I2536
sS'mass'
p5056
I3620
sS'gondola'
p5057
I4953
sVdresses
p5058
I1917
sS'sloping'
p5059
I4849
sVpier
p5060
I611
sS'troll'
p5061
I4678
sS'sparsely'
p5062
I5109
sS'quartz'
p5063
I2872
sS'kinds'
p5064
I4314
sVwaves
p5065
I383
sS'ubs'
p5066
I3758
sS'writting'
p5067
I4232
sS'footprints'
p5068
I3611
sS'outlets'
p5069
I2548
sS'bundle'
p5070
I4869
sS'skyway'
p5071
I4701
sVground
p5072
I867
sVhusky
p5073
I1610
sVcontainer
p5074
I225
sS'basement'
p5075
I4443
sS'gap'
p5076
I4524
sVfriends
p5077
I1260
sS'curbed'
p5078
I3710
sVshown
p5079
I838
sVmats
p5080
I1820
sS'baptism'
p5081
I3974
sVbatting
p5082
I639
sS'dental'
p5083
I4063
sVstarting
p5084
I1611
sS'entertainment'
p5085
I2701
sS'cpu'
p5086
I2581
sS'upsidedown'
p5087
I4946
sS"dog's"
p5088
I3492
sS'portion'
p5089
I3549
sVcompete
p5090
I641
sVbridge
p5091
I1999
sS'vane'
p5092
I4501
sS'cookbook'
p5093
I4935
sS'baked'
p5094
I3743
sS'buoy'
p5095
I3840
s.